
REB165.elf:     file format elf32-avr

Sections:
Idx Name          Size      VMA       LMA       File off  Algn
  0 .data         0000000e  00800100  00004c9c  00004d30  2**0
                  CONTENTS, ALLOC, LOAD, DATA
  1 .text         00004c9c  00000000  00000000  00000094  2**1
                  CONTENTS, ALLOC, LOAD, READONLY, CODE
  2 .bss          00000830  0080010e  0080010e  00004d3e  2**0
                  ALLOC
  3 .comment      00000030  00000000  00000000  00004d3e  2**0
                  CONTENTS, READONLY
  4 .note.gnu.avr.deviceinfo 00000040  00000000  00000000  00004d70  2**2
                  CONTENTS, READONLY
  5 .debug_aranges 000000a0  00000000  00000000  00004db0  2**3
                  CONTENTS, READONLY, DEBUGGING
  6 .debug_info   000002a8  00000000  00000000  00004e50  2**0
                  CONTENTS, READONLY, DEBUGGING
  7 .debug_abbrev 00000064  00000000  00000000  000050f8  2**0
                  CONTENTS, READONLY, DEBUGGING
  8 .debug_line   000011f8  00000000  00000000  0000515c  2**0
                  CONTENTS, READONLY, DEBUGGING

Disassembly of section .text:

00000000 <__vectors>:
       0:	0c 94 46 00 	jmp	0x8c	; 0x8c <__ctors_end>
       4:	0c 94 65 00 	jmp	0xca	; 0xca <__bad_interrupt>
       8:	0c 94 65 00 	jmp	0xca	; 0xca <__bad_interrupt>
       c:	0c 94 65 00 	jmp	0xca	; 0xca <__bad_interrupt>
      10:	0c 94 65 00 	jmp	0xca	; 0xca <__bad_interrupt>
      14:	0c 94 65 00 	jmp	0xca	; 0xca <__bad_interrupt>
      18:	0c 94 65 00 	jmp	0xca	; 0xca <__bad_interrupt>
      1c:	0c 94 65 00 	jmp	0xca	; 0xca <__bad_interrupt>
      20:	0c 94 65 00 	jmp	0xca	; 0xca <__bad_interrupt>
      24:	0c 94 65 00 	jmp	0xca	; 0xca <__bad_interrupt>
      28:	0c 94 65 00 	jmp	0xca	; 0xca <__bad_interrupt>
      2c:	0c 94 65 00 	jmp	0xca	; 0xca <__bad_interrupt>
      30:	0c 94 65 00 	jmp	0xca	; 0xca <__bad_interrupt>
      34:	0c 94 65 00 	jmp	0xca	; 0xca <__bad_interrupt>
      38:	0c 94 65 00 	jmp	0xca	; 0xca <__bad_interrupt>
      3c:	0c 94 65 00 	jmp	0xca	; 0xca <__bad_interrupt>
      40:	0c 94 65 00 	jmp	0xca	; 0xca <__bad_interrupt>
      44:	0c 94 65 00 	jmp	0xca	; 0xca <__bad_interrupt>
      48:	0c 94 65 00 	jmp	0xca	; 0xca <__bad_interrupt>
      4c:	0c 94 65 00 	jmp	0xca	; 0xca <__bad_interrupt>
      50:	0c 94 65 00 	jmp	0xca	; 0xca <__bad_interrupt>
      54:	0c 94 65 00 	jmp	0xca	; 0xca <__bad_interrupt>
      58:	0c 94 65 00 	jmp	0xca	; 0xca <__bad_interrupt>
      5c:	0c 94 65 00 	jmp	0xca	; 0xca <__bad_interrupt>
      60:	0c 94 65 00 	jmp	0xca	; 0xca <__bad_interrupt>
      64:	0c 94 65 00 	jmp	0xca	; 0xca <__bad_interrupt>
      68:	0c 94 65 00 	jmp	0xca	; 0xca <__bad_interrupt>
      6c:	0c 94 65 00 	jmp	0xca	; 0xca <__bad_interrupt>
      70:	0c 94 65 00 	jmp	0xca	; 0xca <__bad_interrupt>
      74:	0c 94 65 00 	jmp	0xca	; 0xca <__bad_interrupt>
      78:	0c 94 65 00 	jmp	0xca	; 0xca <__bad_interrupt>
      7c:	0c 94 65 00 	jmp	0xca	; 0xca <__bad_interrupt>
      80:	0c 94 65 00 	jmp	0xca	; 0xca <__bad_interrupt>
      84:	0c 94 65 00 	jmp	0xca	; 0xca <__bad_interrupt>
      88:	0c 94 65 00 	jmp	0xca	; 0xca <__bad_interrupt>

0000008c <__ctors_end>:
      8c:	11 24       	eor	r1, r1
      8e:	1f be       	out	0x3f, r1	; 63
      90:	cf ef       	ldi	r28, 0xFF	; 255
      92:	d0 e4       	ldi	r29, 0x40	; 64
      94:	de bf       	out	0x3e, r29	; 62
      96:	cd bf       	out	0x3d, r28	; 61

00000098 <__do_copy_data>:
      98:	11 e0       	ldi	r17, 0x01	; 1
      9a:	a0 e0       	ldi	r26, 0x00	; 0
      9c:	b1 e0       	ldi	r27, 0x01	; 1
      9e:	ec e9       	ldi	r30, 0x9C	; 156
      a0:	fc e4       	ldi	r31, 0x4C	; 76
      a2:	00 e0       	ldi	r16, 0x00	; 0
      a4:	0b bf       	out	0x3b, r16	; 59
      a6:	02 c0       	rjmp	.+4      	; 0xac <__do_copy_data+0x14>
      a8:	07 90       	elpm	r0, Z+
      aa:	0d 92       	st	X+, r0
      ac:	ae 30       	cpi	r26, 0x0E	; 14
      ae:	b1 07       	cpc	r27, r17
      b0:	d9 f7       	brne	.-10     	; 0xa8 <__do_copy_data+0x10>

000000b2 <__do_clear_bss>:
      b2:	29 e0       	ldi	r18, 0x09	; 9
      b4:	ae e0       	ldi	r26, 0x0E	; 14
      b6:	b1 e0       	ldi	r27, 0x01	; 1
      b8:	01 c0       	rjmp	.+2      	; 0xbc <.do_clear_bss_start>

000000ba <.do_clear_bss_loop>:
      ba:	1d 92       	st	X+, r1

000000bc <.do_clear_bss_start>:
      bc:	ae 33       	cpi	r26, 0x3E	; 62
      be:	b2 07       	cpc	r27, r18
      c0:	e1 f7       	brne	.-8      	; 0xba <.do_clear_bss_loop>
      c2:	0e 94 94 21 	call	0x4328	; 0x4328 <main>
      c6:	0c 94 4c 26 	jmp	0x4c98	; 0x4c98 <_exit>

000000ca <__bad_interrupt>:
      ca:	0c 94 00 00 	jmp	0	; 0x0 <__vectors>

000000ce <tbl_window_1024>:
      ce:	3d 0a       	sbc	r3, r29
      d0:	3d 0a       	sbc	r3, r29
      d2:	3e 0a       	sbc	r3, r30
      d4:	3f 0a       	sbc	r3, r31
      d6:	41 0a       	sbc	r4, r17
      d8:	44 0a       	sbc	r4, r20
      da:	47 0a       	sbc	r4, r23
      dc:	4b 0a       	sbc	r4, r27
      de:	4f 0a       	sbc	r4, r31
      e0:	54 0a       	sbc	r5, r20
      e2:	59 0a       	sbc	r5, r25
      e4:	5f 0a       	sbc	r5, r31
      e6:	66 0a       	sbc	r6, r22
      e8:	6d 0a       	sbc	r6, r29
      ea:	74 0a       	sbc	r7, r20
      ec:	7d 0a       	sbc	r7, r29
      ee:	85 0a       	sbc	r8, r21
      f0:	8f 0a       	sbc	r8, r31
      f2:	99 0a       	sbc	r9, r25
      f4:	a3 0a       	sbc	r10, r19
      f6:	ae 0a       	sbc	r10, r30
      f8:	ba 0a       	sbc	r11, r26
      fa:	c6 0a       	sbc	r12, r22
      fc:	d3 0a       	sbc	r13, r19
      fe:	e0 0a       	sbc	r14, r16
     100:	ee 0a       	sbc	r14, r30
     102:	fc 0a       	sbc	r15, r28
     104:	0b 0b       	sbc	r16, r27
     106:	1b 0b       	sbc	r17, r27
     108:	2b 0b       	sbc	r18, r27
     10a:	3c 0b       	sbc	r19, r28
     10c:	4d 0b       	sbc	r20, r29
     10e:	5e 0b       	sbc	r21, r30
     110:	71 0b       	sbc	r23, r17
     112:	84 0b       	sbc	r24, r20
     114:	97 0b       	sbc	r25, r23
     116:	ab 0b       	sbc	r26, r27
     118:	c0 0b       	sbc	r28, r16
     11a:	d5 0b       	sbc	r29, r21
     11c:	ea 0b       	sbc	r30, r26
     11e:	01 0c       	add	r0, r1
     120:	17 0c       	add	r1, r7
     122:	2f 0c       	add	r2, r15
     124:	46 0c       	add	r4, r6
     126:	5f 0c       	add	r5, r15
     128:	78 0c       	add	r7, r8
     12a:	91 0c       	add	r9, r1
     12c:	ab 0c       	add	r10, r11
     12e:	c6 0c       	add	r12, r6
     130:	e1 0c       	add	r14, r1
     132:	fd 0c       	add	r15, r13
     134:	19 0d       	add	r17, r9
     136:	36 0d       	add	r19, r6
     138:	53 0d       	add	r21, r3
     13a:	71 0d       	add	r23, r1
     13c:	8f 0d       	add	r24, r15
     13e:	ae 0d       	add	r26, r14
     140:	cd 0d       	add	r28, r13
     142:	ed 0d       	add	r30, r13
     144:	0e 0e       	add	r0, r30
     146:	2f 0e       	add	r2, r31
     148:	50 0e       	add	r5, r16
     14a:	72 0e       	add	r7, r18
     14c:	95 0e       	add	r9, r21
     14e:	b8 0e       	add	r11, r24
     150:	dc 0e       	add	r13, r28
     152:	00 0f       	add	r16, r16
     154:	25 0f       	add	r18, r21
     156:	4a 0f       	add	r20, r26
     158:	70 0f       	add	r23, r16
     15a:	96 0f       	add	r25, r22
     15c:	bd 0f       	add	r27, r29
     15e:	e4 0f       	add	r30, r20
     160:	0c 10       	cpse	r0, r12
     162:	34 10       	cpse	r3, r4
     164:	5d 10       	cpse	r5, r13
     166:	86 10       	cpse	r8, r6
     168:	b0 10       	cpse	r11, r0
     16a:	da 10       	cpse	r13, r10
     16c:	05 11       	cpse	r16, r5
     16e:	31 11       	cpse	r19, r1
     170:	5c 11       	cpse	r21, r12
     172:	89 11       	cpse	r24, r9
     174:	b6 11       	cpse	r27, r6
     176:	e3 11       	cpse	r30, r3
     178:	11 12       	cpse	r1, r17
     17a:	3f 12       	cpse	r3, r31
     17c:	6e 12       	cpse	r6, r30
     17e:	9d 12       	cpse	r9, r29
     180:	cd 12       	cpse	r12, r29
     182:	fd 12       	cpse	r15, r29
     184:	2e 13       	cpse	r18, r30
     186:	5f 13       	cpse	r21, r31
     188:	91 13       	cpse	r25, r17
     18a:	c3 13       	cpse	r28, r19
     18c:	f6 13       	cpse	r31, r22
     18e:	29 14       	cp	r2, r9
     190:	5d 14       	cp	r5, r13
     192:	91 14       	cp	r9, r1
     194:	c5 14       	cp	r12, r5
     196:	fa 14       	cp	r15, r10
     198:	30 15       	cp	r19, r0
     19a:	66 15       	cp	r22, r6
     19c:	9c 15       	cp	r25, r12
     19e:	d3 15       	cp	r29, r3
     1a0:	0a 16       	cp	r0, r26
     1a2:	42 16       	cp	r4, r18
     1a4:	7a 16       	cp	r7, r26
     1a6:	b3 16       	cp	r11, r19
     1a8:	ec 16       	cp	r14, r28
     1aa:	26 17       	cp	r18, r22
     1ac:	60 17       	cp	r22, r16
     1ae:	9a 17       	cp	r25, r26
     1b0:	d5 17       	cp	r29, r21
     1b2:	10 18       	sub	r1, r0
     1b4:	4c 18       	sub	r4, r12
     1b6:	88 18       	sub	r8, r8
     1b8:	c5 18       	sub	r12, r5
     1ba:	02 19       	sub	r16, r2
     1bc:	40 19       	sub	r20, r0
     1be:	7d 19       	sub	r23, r13
     1c0:	bc 19       	sub	r27, r12
     1c2:	fb 19       	sub	r31, r11
     1c4:	3a 1a       	sub	r3, r26
     1c6:	79 1a       	sub	r7, r25
     1c8:	b9 1a       	sub	r11, r25
     1ca:	fa 1a       	sub	r15, r26
     1cc:	3a 1b       	sub	r19, r26
     1ce:	7c 1b       	sub	r23, r28
     1d0:	bd 1b       	sub	r27, r29
     1d2:	ff 1b       	sub	r31, r31
     1d4:	42 1c       	adc	r4, r2
     1d6:	84 1c       	adc	r8, r4
     1d8:	c8 1c       	adc	r12, r8
     1da:	0b 1d       	adc	r16, r11
     1dc:	4f 1d       	adc	r20, r15
     1de:	93 1d       	adc	r25, r3
     1e0:	d8 1d       	adc	r29, r8
     1e2:	1d 1e       	adc	r1, r29
     1e4:	63 1e       	adc	r6, r19
     1e6:	a9 1e       	adc	r10, r25
     1e8:	ef 1e       	adc	r14, r31
     1ea:	35 1f       	adc	r19, r21
     1ec:	7c 1f       	adc	r23, r28
     1ee:	c4 1f       	adc	r28, r20
     1f0:	0b 20       	and	r0, r11
     1f2:	53 20       	and	r5, r3
     1f4:	9c 20       	and	r9, r12
     1f6:	e4 20       	and	r14, r4
     1f8:	2d 21       	and	r18, r13
     1fa:	77 21       	and	r23, r7
     1fc:	c1 21       	and	r28, r1
     1fe:	0b 22       	and	r0, r27
     200:	55 22       	and	r5, r21
     202:	a0 22       	and	r10, r16
     204:	eb 22       	and	r14, r27
     206:	37 23       	and	r19, r23
     208:	82 23       	and	r24, r18
     20a:	ce 23       	and	r28, r30
     20c:	1b 24       	eor	r1, r11
     20e:	68 24       	eor	r6, r8
     210:	b5 24       	eor	r11, r5
     212:	02 25       	eor	r16, r2
     214:	50 25       	eor	r21, r0
     216:	9e 25       	eor	r25, r14
     218:	ec 25       	eor	r30, r12
     21a:	3b 26       	eor	r3, r27
     21c:	8a 26       	eor	r8, r26
     21e:	d9 26       	eor	r13, r25
     220:	28 27       	eor	r18, r24
     222:	78 27       	eor	r23, r24
     224:	c8 27       	eor	r28, r24
     226:	18 28       	or	r1, r8
     228:	69 28       	or	r6, r9
     22a:	ba 28       	or	r11, r10
     22c:	0b 29       	or	r16, r11
     22e:	5c 29       	or	r21, r12
     230:	ae 29       	or	r26, r14
     232:	00 2a       	or	r0, r16
     234:	52 2a       	or	r5, r18
     236:	a5 2a       	or	r10, r21
     238:	f7 2a       	or	r15, r23
     23a:	4a 2b       	or	r20, r26
     23c:	9e 2b       	or	r25, r30
     23e:	f1 2b       	or	r31, r17
     240:	45 2c       	mov	r4, r5
     242:	99 2c       	mov	r9, r9
     244:	ed 2c       	mov	r14, r13
     246:	42 2d       	mov	r20, r2
     248:	96 2d       	mov	r25, r6
     24a:	eb 2d       	mov	r30, r11
     24c:	40 2e       	mov	r4, r16
     24e:	96 2e       	mov	r9, r22
     250:	eb 2e       	mov	r14, r27
     252:	41 2f       	mov	r20, r17
     254:	97 2f       	mov	r25, r23
     256:	ed 2f       	mov	r30, r29
     258:	43 30       	cpi	r20, 0x03	; 3
     25a:	9a 30       	cpi	r25, 0x0A	; 10
     25c:	f1 30       	cpi	r31, 0x01	; 1
     25e:	48 31       	cpi	r20, 0x18	; 24
     260:	9f 31       	cpi	r25, 0x1F	; 31
     262:	f6 31       	cpi	r31, 0x16	; 22
     264:	4e 32       	cpi	r20, 0x2E	; 46
     266:	a6 32       	cpi	r26, 0x26	; 38
     268:	fe 32       	cpi	r31, 0x2E	; 46
     26a:	56 33       	cpi	r21, 0x36	; 54
     26c:	ae 33       	cpi	r26, 0x3E	; 62
     26e:	06 34       	cpi	r16, 0x46	; 70
     270:	5f 34       	cpi	r21, 0x4F	; 79
     272:	b8 34       	cpi	r27, 0x48	; 72
     274:	10 35       	cpi	r17, 0x50	; 80
     276:	6a 35       	cpi	r22, 0x5A	; 90
     278:	c3 35       	cpi	r28, 0x53	; 83
     27a:	1c 36       	cpi	r17, 0x6C	; 108
     27c:	76 36       	cpi	r23, 0x66	; 102
     27e:	cf 36       	cpi	r28, 0x6F	; 111
     280:	29 37       	cpi	r18, 0x79	; 121
     282:	83 37       	cpi	r24, 0x73	; 115
     284:	dd 37       	cpi	r29, 0x7D	; 125
     286:	37 38       	cpi	r19, 0x87	; 135
     288:	91 38       	cpi	r25, 0x81	; 129
     28a:	ec 38       	cpi	r30, 0x8C	; 140
     28c:	46 39       	cpi	r20, 0x96	; 150
     28e:	a1 39       	cpi	r26, 0x91	; 145
     290:	fc 39       	cpi	r31, 0x9C	; 156
     292:	57 3a       	cpi	r21, 0xA7	; 167
     294:	b2 3a       	cpi	r27, 0xA2	; 162
     296:	0d 3b       	cpi	r16, 0xBD	; 189
     298:	68 3b       	cpi	r22, 0xB8	; 184
     29a:	c3 3b       	cpi	r28, 0xB3	; 179
     29c:	1f 3c       	cpi	r17, 0xCF	; 207
     29e:	7a 3c       	cpi	r23, 0xCA	; 202
     2a0:	d6 3c       	cpi	r29, 0xC6	; 198
     2a2:	31 3d       	cpi	r19, 0xD1	; 209
     2a4:	8d 3d       	cpi	r24, 0xDD	; 221
     2a6:	e9 3d       	cpi	r30, 0xD9	; 217
     2a8:	44 3e       	cpi	r20, 0xE4	; 228
     2aa:	a0 3e       	cpi	r26, 0xE0	; 224
     2ac:	fc 3e       	cpi	r31, 0xEC	; 236
     2ae:	58 3f       	cpi	r21, 0xF8	; 248
     2b0:	b4 3f       	cpi	r27, 0xF4	; 244
     2b2:	10 40       	sbci	r17, 0x00	; 0
     2b4:	6d 40       	sbci	r22, 0x0D	; 13
     2b6:	c9 40       	sbci	r28, 0x09	; 9
     2b8:	25 41       	sbci	r18, 0x15	; 21
     2ba:	81 41       	sbci	r24, 0x11	; 17
     2bc:	de 41       	sbci	r29, 0x1E	; 30
     2be:	3a 42       	sbci	r19, 0x2A	; 42
     2c0:	96 42       	sbci	r25, 0x26	; 38
     2c2:	f3 42       	sbci	r31, 0x23	; 35
     2c4:	4f 43       	sbci	r20, 0x3F	; 63
     2c6:	ac 43       	sbci	r26, 0x3C	; 60
     2c8:	08 44       	sbci	r16, 0x48	; 72
     2ca:	65 44       	sbci	r22, 0x45	; 69
     2cc:	c1 44       	sbci	r28, 0x41	; 65
     2ce:	1e 45       	sbci	r17, 0x5E	; 94
     2d0:	7a 45       	sbci	r23, 0x5A	; 90
     2d2:	d7 45       	sbci	r29, 0x57	; 87
     2d4:	33 46       	sbci	r19, 0x63	; 99
     2d6:	90 46       	sbci	r25, 0x60	; 96
     2d8:	ec 46       	sbci	r30, 0x6C	; 108
     2da:	48 47       	sbci	r20, 0x78	; 120
     2dc:	a5 47       	sbci	r26, 0x75	; 117
     2de:	01 48       	sbci	r16, 0x81	; 129
     2e0:	5e 48       	sbci	r21, 0x8E	; 142
     2e2:	ba 48       	sbci	r27, 0x8A	; 138
     2e4:	16 49       	sbci	r17, 0x96	; 150
     2e6:	72 49       	sbci	r23, 0x92	; 146
     2e8:	cf 49       	sbci	r28, 0x9F	; 159
     2ea:	2b 4a       	sbci	r18, 0xAB	; 171
     2ec:	87 4a       	sbci	r24, 0xA7	; 167
     2ee:	e3 4a       	sbci	r30, 0xA3	; 163
     2f0:	3f 4b       	sbci	r19, 0xBF	; 191
     2f2:	9b 4b       	sbci	r25, 0xBB	; 187
     2f4:	f7 4b       	sbci	r31, 0xB7	; 183
     2f6:	53 4c       	sbci	r21, 0xC3	; 195
     2f8:	ae 4c       	sbci	r26, 0xCE	; 206
     2fa:	0a 4d       	sbci	r16, 0xDA	; 218
     2fc:	66 4d       	sbci	r22, 0xD6	; 214
     2fe:	c1 4d       	sbci	r28, 0xD1	; 209
     300:	1d 4e       	sbci	r17, 0xED	; 237
     302:	78 4e       	sbci	r23, 0xE8	; 232
     304:	d3 4e       	sbci	r29, 0xE3	; 227
     306:	2f 4f       	sbci	r18, 0xFF	; 255
     308:	8a 4f       	sbci	r24, 0xFA	; 250
     30a:	e5 4f       	sbci	r30, 0xF5	; 245
     30c:	3f 50       	subi	r19, 0x0F	; 15
     30e:	9a 50       	subi	r25, 0x0A	; 10
     310:	f5 50       	subi	r31, 0x05	; 5
     312:	4f 51       	subi	r20, 0x1F	; 31
     314:	aa 51       	subi	r26, 0x1A	; 26
     316:	04 52       	subi	r16, 0x24	; 36
     318:	5e 52       	subi	r21, 0x2E	; 46
     31a:	b8 52       	subi	r27, 0x28	; 40
     31c:	12 53       	subi	r17, 0x32	; 50
     31e:	6c 53       	subi	r22, 0x3C	; 60
     320:	c6 53       	subi	r28, 0x36	; 54
     322:	1f 54       	subi	r17, 0x4F	; 79
     324:	79 54       	subi	r23, 0x49	; 73
     326:	d2 54       	subi	r29, 0x42	; 66
     328:	2b 55       	subi	r18, 0x5B	; 91
     32a:	84 55       	subi	r24, 0x54	; 84
     32c:	dc 55       	subi	r29, 0x5C	; 92
     32e:	35 56       	subi	r19, 0x65	; 101
     330:	8d 56       	subi	r24, 0x6D	; 109
     332:	e6 56       	subi	r30, 0x66	; 102
     334:	3e 57       	subi	r19, 0x7E	; 126
     336:	96 57       	subi	r25, 0x76	; 118
     338:	ed 57       	subi	r30, 0x7D	; 125
     33a:	45 58       	subi	r20, 0x85	; 133
     33c:	9c 58       	subi	r25, 0x8C	; 140
     33e:	f4 58       	subi	r31, 0x84	; 132
     340:	4b 59       	subi	r20, 0x9B	; 155
     342:	a1 59       	subi	r26, 0x91	; 145
     344:	f8 59       	subi	r31, 0x98	; 152
     346:	4e 5a       	subi	r20, 0xAE	; 174
     348:	a4 5a       	subi	r26, 0xA4	; 164
     34a:	fa 5a       	subi	r31, 0xAA	; 170
     34c:	50 5b       	subi	r21, 0xB0	; 176
     34e:	a6 5b       	subi	r26, 0xB6	; 182
     350:	fb 5b       	subi	r31, 0xBB	; 187
     352:	50 5c       	subi	r21, 0xC0	; 192
     354:	a5 5c       	subi	r26, 0xC5	; 197
     356:	fa 5c       	subi	r31, 0xCA	; 202
     358:	4e 5d       	subi	r20, 0xDE	; 222
     35a:	a2 5d       	subi	r26, 0xD2	; 210
     35c:	f6 5d       	subi	r31, 0xD6	; 214
     35e:	4a 5e       	subi	r20, 0xEA	; 234
     360:	9e 5e       	subi	r25, 0xEE	; 238
     362:	f1 5e       	subi	r31, 0xE1	; 225
     364:	44 5f       	subi	r20, 0xF4	; 244
     366:	97 5f       	subi	r25, 0xF7	; 247
     368:	e9 5f       	subi	r30, 0xF9	; 249
     36a:	3b 60       	ori	r19, 0x0B	; 11
     36c:	8d 60       	ori	r24, 0x0D	; 13
     36e:	df 60       	ori	r29, 0x0F	; 15
     370:	30 61       	ori	r19, 0x10	; 16
     372:	82 61       	ori	r24, 0x12	; 18
     374:	d2 61       	ori	r29, 0x12	; 18
     376:	23 62       	ori	r18, 0x23	; 35
     378:	73 62       	ori	r23, 0x23	; 35
     37a:	c3 62       	ori	r28, 0x23	; 35
     37c:	13 63       	ori	r17, 0x33	; 51
     37e:	63 63       	ori	r22, 0x33	; 51
     380:	b2 63       	ori	r27, 0x32	; 50
     382:	01 64       	ori	r16, 0x41	; 65
     384:	4f 64       	ori	r20, 0x4F	; 79
     386:	9e 64       	ori	r25, 0x4E	; 78
     388:	ec 64       	ori	r30, 0x4C	; 76
     38a:	39 65       	ori	r19, 0x59	; 89
     38c:	87 65       	ori	r24, 0x57	; 87
     38e:	d4 65       	ori	r29, 0x54	; 84
     390:	20 66       	ori	r18, 0x60	; 96
     392:	6d 66       	ori	r22, 0x6D	; 109
     394:	b9 66       	ori	r27, 0x69	; 105
     396:	05 67       	ori	r16, 0x75	; 117
     398:	50 67       	ori	r21, 0x70	; 112
     39a:	9b 67       	ori	r25, 0x7B	; 123
     39c:	e6 67       	ori	r30, 0x76	; 118
     39e:	31 68       	ori	r19, 0x81	; 129
     3a0:	7b 68       	ori	r23, 0x8B	; 139
     3a2:	c4 68       	ori	r28, 0x84	; 132
     3a4:	0e 69       	ori	r16, 0x9E	; 158
     3a6:	57 69       	ori	r21, 0x97	; 151
     3a8:	a0 69       	ori	r26, 0x90	; 144
     3aa:	e8 69       	ori	r30, 0x98	; 152
     3ac:	30 6a       	ori	r19, 0xA0	; 160
     3ae:	78 6a       	ori	r23, 0xA8	; 168
     3b0:	bf 6a       	ori	r27, 0xAF	; 175
     3b2:	06 6b       	ori	r16, 0xB6	; 182
     3b4:	4d 6b       	ori	r20, 0xBD	; 189
     3b6:	93 6b       	ori	r25, 0xB3	; 179
     3b8:	d9 6b       	ori	r29, 0xB9	; 185
     3ba:	1e 6c       	ori	r17, 0xCE	; 206
     3bc:	63 6c       	ori	r22, 0xC3	; 195
     3be:	a8 6c       	ori	r26, 0xC8	; 200
     3c0:	ec 6c       	ori	r30, 0xCC	; 204
     3c2:	30 6d       	ori	r19, 0xD0	; 208
     3c4:	74 6d       	ori	r23, 0xD4	; 212
     3c6:	b7 6d       	ori	r27, 0xD7	; 215
     3c8:	fa 6d       	ori	r31, 0xDA	; 218
     3ca:	3c 6e       	ori	r19, 0xEC	; 236
     3cc:	7e 6e       	ori	r23, 0xEE	; 238
     3ce:	c0 6e       	ori	r28, 0xE0	; 224
     3d0:	01 6f       	ori	r16, 0xF1	; 241
     3d2:	42 6f       	ori	r20, 0xF2	; 242
     3d4:	82 6f       	ori	r24, 0xF2	; 242
     3d6:	c2 6f       	ori	r28, 0xF2	; 242
     3d8:	02 70       	andi	r16, 0x02	; 2
     3da:	41 70       	andi	r20, 0x01	; 1
     3dc:	80 70       	andi	r24, 0x00	; 0
     3de:	be 70       	andi	r27, 0x0E	; 14
     3e0:	fc 70       	andi	r31, 0x0C	; 12
     3e2:	39 71       	andi	r19, 0x19	; 25
     3e4:	76 71       	andi	r23, 0x16	; 22
     3e6:	b3 71       	andi	r27, 0x13	; 19
     3e8:	ef 71       	andi	r30, 0x1F	; 31
     3ea:	2b 72       	andi	r18, 0x2B	; 43
     3ec:	66 72       	andi	r22, 0x26	; 38
     3ee:	a1 72       	andi	r26, 0x21	; 33
     3f0:	dc 72       	andi	r29, 0x2C	; 44
     3f2:	16 73       	andi	r17, 0x36	; 54
     3f4:	4f 73       	andi	r20, 0x3F	; 63
     3f6:	88 73       	andi	r24, 0x38	; 56
     3f8:	c1 73       	andi	r28, 0x31	; 49
     3fa:	f9 73       	andi	r31, 0x39	; 57
     3fc:	31 74       	andi	r19, 0x41	; 65
     3fe:	68 74       	andi	r22, 0x48	; 72
     400:	9f 74       	andi	r25, 0x4F	; 79
     402:	d6 74       	andi	r29, 0x46	; 70
     404:	0b 75       	andi	r16, 0x5B	; 91
     406:	41 75       	andi	r20, 0x51	; 81
     408:	76 75       	andi	r23, 0x56	; 86
     40a:	ab 75       	andi	r26, 0x5B	; 91
     40c:	df 75       	andi	r29, 0x5F	; 95
     40e:	12 76       	andi	r17, 0x62	; 98
     410:	45 76       	andi	r20, 0x65	; 101
     412:	78 76       	andi	r23, 0x68	; 104
     414:	aa 76       	andi	r26, 0x6A	; 106
     416:	dc 76       	andi	r29, 0x6C	; 108
     418:	0d 77       	andi	r16, 0x7D	; 125
     41a:	3e 77       	andi	r19, 0x7E	; 126
     41c:	6e 77       	andi	r22, 0x7E	; 126
     41e:	9e 77       	andi	r25, 0x7E	; 126
     420:	cd 77       	andi	r28, 0x7D	; 125
     422:	fc 77       	andi	r31, 0x7C	; 124
     424:	2a 78       	andi	r18, 0x8A	; 138
     426:	58 78       	andi	r21, 0x88	; 136
     428:	86 78       	andi	r24, 0x86	; 134
     42a:	b3 78       	andi	r27, 0x83	; 131
     42c:	df 78       	andi	r29, 0x8F	; 143
     42e:	0b 79       	andi	r16, 0x9B	; 155
     430:	36 79       	andi	r19, 0x96	; 150
     432:	61 79       	andi	r22, 0x91	; 145
     434:	8b 79       	andi	r24, 0x9B	; 155
     436:	b5 79       	andi	r27, 0x95	; 149
     438:	de 79       	andi	r29, 0x9E	; 158
     43a:	07 7a       	andi	r16, 0xA7	; 167
     43c:	30 7a       	andi	r19, 0xA0	; 160
     43e:	57 7a       	andi	r21, 0xA7	; 167
     440:	7f 7a       	andi	r23, 0xAF	; 175
     442:	a5 7a       	andi	r26, 0xA5	; 165
     444:	cc 7a       	andi	r28, 0xAC	; 172
     446:	f1 7a       	andi	r31, 0xA1	; 161
     448:	17 7b       	andi	r17, 0xB7	; 183
     44a:	3b 7b       	andi	r19, 0xBB	; 187
     44c:	5f 7b       	andi	r21, 0xBF	; 191
     44e:	83 7b       	andi	r24, 0xB3	; 179
     450:	a6 7b       	andi	r26, 0xB6	; 182
     452:	c9 7b       	andi	r28, 0xB9	; 185
     454:	eb 7b       	andi	r30, 0xBB	; 187
     456:	0c 7c       	andi	r16, 0xCC	; 204
     458:	2e 7c       	andi	r18, 0xCE	; 206
     45a:	4e 7c       	andi	r20, 0xCE	; 206
     45c:	6e 7c       	andi	r22, 0xCE	; 206
     45e:	8d 7c       	andi	r24, 0xCD	; 205
     460:	ac 7c       	andi	r26, 0xCC	; 204
     462:	cb 7c       	andi	r28, 0xCB	; 203
     464:	e8 7c       	andi	r30, 0xC8	; 200
     466:	06 7d       	andi	r16, 0xD6	; 214
     468:	22 7d       	andi	r18, 0xD2	; 210
     46a:	3f 7d       	andi	r19, 0xDF	; 223
     46c:	5a 7d       	andi	r21, 0xDA	; 218
     46e:	75 7d       	andi	r23, 0xD5	; 213
     470:	90 7d       	andi	r25, 0xD0	; 208
     472:	aa 7d       	andi	r26, 0xDA	; 218
     474:	c4 7d       	andi	r28, 0xD4	; 212
     476:	dc 7d       	andi	r29, 0xDC	; 220
     478:	f5 7d       	andi	r31, 0xD5	; 213
     47a:	0d 7e       	andi	r16, 0xED	; 237
     47c:	24 7e       	andi	r18, 0xE4	; 228
     47e:	3b 7e       	andi	r19, 0xEB	; 235
     480:	51 7e       	andi	r21, 0xE1	; 225
     482:	67 7e       	andi	r22, 0xE7	; 231
     484:	7c 7e       	andi	r23, 0xEC	; 236
     486:	90 7e       	andi	r25, 0xE0	; 224
     488:	a4 7e       	andi	r26, 0xE4	; 228
     48a:	b8 7e       	andi	r27, 0xE8	; 232
     48c:	cb 7e       	andi	r28, 0xEB	; 235
     48e:	dd 7e       	andi	r29, 0xED	; 237
     490:	ef 7e       	andi	r30, 0xEF	; 239
     492:	00 7f       	andi	r16, 0xF0	; 240
     494:	10 7f       	andi	r17, 0xF0	; 240
     496:	21 7f       	andi	r18, 0xF1	; 241
     498:	30 7f       	andi	r19, 0xF0	; 240
     49a:	3f 7f       	andi	r19, 0xFF	; 255
     49c:	4e 7f       	andi	r20, 0xFE	; 254
     49e:	5b 7f       	andi	r21, 0xFB	; 251
     4a0:	69 7f       	andi	r22, 0xF9	; 249
     4a2:	75 7f       	andi	r23, 0xF5	; 245
     4a4:	82 7f       	andi	r24, 0xF2	; 242
     4a6:	8d 7f       	andi	r24, 0xFD	; 253
     4a8:	98 7f       	andi	r25, 0xF8	; 248
     4aa:	a3 7f       	andi	r26, 0xF3	; 243
     4ac:	ad 7f       	andi	r26, 0xFD	; 253
     4ae:	b6 7f       	andi	r27, 0xF6	; 246
     4b0:	bf 7f       	andi	r27, 0xFF	; 255
     4b2:	c7 7f       	andi	r28, 0xF7	; 247
     4b4:	cf 7f       	andi	r28, 0xFF	; 255
     4b6:	d6 7f       	andi	r29, 0xF6	; 246
     4b8:	dc 7f       	andi	r29, 0xFC	; 252
     4ba:	e2 7f       	andi	r30, 0xF2	; 242
     4bc:	e8 7f       	andi	r30, 0xF8	; 248
     4be:	ec 7f       	andi	r30, 0xFC	; 252
     4c0:	f1 7f       	andi	r31, 0xF1	; 241
     4c2:	f4 7f       	andi	r31, 0xF4	; 244
     4c4:	f7 7f       	andi	r31, 0xF7	; 247
     4c6:	fa 7f       	andi	r31, 0xFA	; 250
     4c8:	fc 7f       	andi	r31, 0xFC	; 252
     4ca:	fd 7f       	andi	r31, 0xFD	; 253
     4cc:	fe 7f       	andi	r31, 0xFE	; 254
     4ce:	fe 7f       	andi	r31, 0xFE	; 254
     4d0:	fe 7f       	andi	r31, 0xFE	; 254
     4d2:	fd 7f       	andi	r31, 0xFD	; 253
     4d4:	fc 7f       	andi	r31, 0xFC	; 252
     4d6:	fa 7f       	andi	r31, 0xFA	; 250
     4d8:	f7 7f       	andi	r31, 0xF7	; 247
     4da:	f4 7f       	andi	r31, 0xF4	; 244
     4dc:	f1 7f       	andi	r31, 0xF1	; 241
     4de:	ec 7f       	andi	r30, 0xFC	; 252
     4e0:	e8 7f       	andi	r30, 0xF8	; 248
     4e2:	e2 7f       	andi	r30, 0xF2	; 242
     4e4:	dc 7f       	andi	r29, 0xFC	; 252
     4e6:	d6 7f       	andi	r29, 0xF6	; 246
     4e8:	cf 7f       	andi	r28, 0xFF	; 255
     4ea:	c7 7f       	andi	r28, 0xF7	; 247
     4ec:	bf 7f       	andi	r27, 0xFF	; 255
     4ee:	b6 7f       	andi	r27, 0xF6	; 246
     4f0:	ad 7f       	andi	r26, 0xFD	; 253
     4f2:	a3 7f       	andi	r26, 0xF3	; 243
     4f4:	98 7f       	andi	r25, 0xF8	; 248
     4f6:	8d 7f       	andi	r24, 0xFD	; 253
     4f8:	82 7f       	andi	r24, 0xF2	; 242
     4fa:	75 7f       	andi	r23, 0xF5	; 245
     4fc:	69 7f       	andi	r22, 0xF9	; 249
     4fe:	5b 7f       	andi	r21, 0xFB	; 251
     500:	4e 7f       	andi	r20, 0xFE	; 254
     502:	3f 7f       	andi	r19, 0xFF	; 255
     504:	30 7f       	andi	r19, 0xF0	; 240
     506:	21 7f       	andi	r18, 0xF1	; 241
     508:	11 7f       	andi	r17, 0xF1	; 241
     50a:	00 7f       	andi	r16, 0xF0	; 240
     50c:	ef 7e       	andi	r30, 0xEF	; 239
     50e:	dd 7e       	andi	r29, 0xED	; 237
     510:	cb 7e       	andi	r28, 0xEB	; 235
     512:	b8 7e       	andi	r27, 0xE8	; 232
     514:	a4 7e       	andi	r26, 0xE4	; 228
     516:	90 7e       	andi	r25, 0xE0	; 224
     518:	7c 7e       	andi	r23, 0xEC	; 236
     51a:	67 7e       	andi	r22, 0xE7	; 231
     51c:	51 7e       	andi	r21, 0xE1	; 225
     51e:	3b 7e       	andi	r19, 0xEB	; 235
     520:	24 7e       	andi	r18, 0xE4	; 228
     522:	0d 7e       	andi	r16, 0xED	; 237
     524:	f5 7d       	andi	r31, 0xD5	; 213
     526:	dd 7d       	andi	r29, 0xDD	; 221
     528:	c4 7d       	andi	r28, 0xD4	; 212
     52a:	aa 7d       	andi	r26, 0xDA	; 218
     52c:	90 7d       	andi	r25, 0xD0	; 208
     52e:	75 7d       	andi	r23, 0xD5	; 213
     530:	5a 7d       	andi	r21, 0xDA	; 218
     532:	3f 7d       	andi	r19, 0xDF	; 223
     534:	23 7d       	andi	r18, 0xD3	; 211
     536:	06 7d       	andi	r16, 0xD6	; 214
     538:	e8 7c       	andi	r30, 0xC8	; 200
     53a:	cb 7c       	andi	r28, 0xCB	; 203
     53c:	ac 7c       	andi	r26, 0xCC	; 204
     53e:	8d 7c       	andi	r24, 0xCD	; 205
     540:	6e 7c       	andi	r22, 0xCE	; 206
     542:	4e 7c       	andi	r20, 0xCE	; 206
     544:	2e 7c       	andi	r18, 0xCE	; 206
     546:	0d 7c       	andi	r16, 0xCD	; 205
     548:	eb 7b       	andi	r30, 0xBB	; 187
     54a:	c9 7b       	andi	r28, 0xB9	; 185
     54c:	a6 7b       	andi	r26, 0xB6	; 182
     54e:	83 7b       	andi	r24, 0xB3	; 179
     550:	60 7b       	andi	r22, 0xB0	; 176
     552:	3b 7b       	andi	r19, 0xBB	; 187
     554:	17 7b       	andi	r17, 0xB7	; 183
     556:	f1 7a       	andi	r31, 0xA1	; 161
     558:	cc 7a       	andi	r28, 0xAC	; 172
     55a:	a5 7a       	andi	r26, 0xA5	; 165
     55c:	7f 7a       	andi	r23, 0xAF	; 175
     55e:	57 7a       	andi	r21, 0xA7	; 167
     560:	30 7a       	andi	r19, 0xA0	; 160
     562:	07 7a       	andi	r16, 0xA7	; 167
     564:	de 79       	andi	r29, 0x9E	; 158
     566:	b5 79       	andi	r27, 0x95	; 149
     568:	8b 79       	andi	r24, 0x9B	; 155
     56a:	61 79       	andi	r22, 0x91	; 145
     56c:	36 79       	andi	r19, 0x96	; 150
     56e:	0b 79       	andi	r16, 0x9B	; 155
     570:	df 78       	andi	r29, 0x8F	; 143
     572:	b3 78       	andi	r27, 0x83	; 131
     574:	86 78       	andi	r24, 0x86	; 134
     576:	58 78       	andi	r21, 0x88	; 136
     578:	2b 78       	andi	r18, 0x8B	; 139
     57a:	fc 77       	andi	r31, 0x7C	; 124
     57c:	cd 77       	andi	r28, 0x7D	; 125
     57e:	9e 77       	andi	r25, 0x7E	; 126
     580:	6e 77       	andi	r22, 0x7E	; 126
     582:	3e 77       	andi	r19, 0x7E	; 126
     584:	0d 77       	andi	r16, 0x7D	; 125
     586:	dc 76       	andi	r29, 0x6C	; 108
     588:	aa 76       	andi	r26, 0x6A	; 106
     58a:	78 76       	andi	r23, 0x68	; 104
     58c:	45 76       	andi	r20, 0x65	; 101
     58e:	12 76       	andi	r17, 0x62	; 98
     590:	df 75       	andi	r29, 0x5F	; 95
     592:	ab 75       	andi	r26, 0x5B	; 91
     594:	76 75       	andi	r23, 0x56	; 86
     596:	41 75       	andi	r20, 0x51	; 81
     598:	0c 75       	andi	r16, 0x5C	; 92
     59a:	d6 74       	andi	r29, 0x46	; 70
     59c:	9f 74       	andi	r25, 0x4F	; 79
     59e:	68 74       	andi	r22, 0x48	; 72
     5a0:	31 74       	andi	r19, 0x41	; 65
     5a2:	f9 73       	andi	r31, 0x39	; 57
     5a4:	c1 73       	andi	r28, 0x31	; 49
     5a6:	88 73       	andi	r24, 0x38	; 56
     5a8:	4f 73       	andi	r20, 0x3F	; 63
     5aa:	16 73       	andi	r17, 0x36	; 54
     5ac:	dc 72       	andi	r29, 0x2C	; 44
     5ae:	a1 72       	andi	r26, 0x21	; 33
     5b0:	66 72       	andi	r22, 0x26	; 38
     5b2:	2b 72       	andi	r18, 0x2B	; 43
     5b4:	ef 71       	andi	r30, 0x1F	; 31
     5b6:	b3 71       	andi	r27, 0x13	; 19
     5b8:	76 71       	andi	r23, 0x16	; 22
     5ba:	39 71       	andi	r19, 0x19	; 25
     5bc:	fc 70       	andi	r31, 0x0C	; 12
     5be:	be 70       	andi	r27, 0x0E	; 14
     5c0:	80 70       	andi	r24, 0x00	; 0
     5c2:	41 70       	andi	r20, 0x01	; 1
     5c4:	02 70       	andi	r16, 0x02	; 2
     5c6:	c2 6f       	ori	r28, 0xF2	; 242
     5c8:	82 6f       	ori	r24, 0xF2	; 242
     5ca:	42 6f       	ori	r20, 0xF2	; 242
     5cc:	01 6f       	ori	r16, 0xF1	; 241
     5ce:	c0 6e       	ori	r28, 0xE0	; 224
     5d0:	7e 6e       	ori	r23, 0xEE	; 238
     5d2:	3c 6e       	ori	r19, 0xEC	; 236
     5d4:	fa 6d       	ori	r31, 0xDA	; 218
     5d6:	b7 6d       	ori	r27, 0xD7	; 215
     5d8:	74 6d       	ori	r23, 0xD4	; 212
     5da:	30 6d       	ori	r19, 0xD0	; 208
     5dc:	ec 6c       	ori	r30, 0xCC	; 204
     5de:	a8 6c       	ori	r26, 0xC8	; 200
     5e0:	63 6c       	ori	r22, 0xC3	; 195
     5e2:	1e 6c       	ori	r17, 0xCE	; 206
     5e4:	d9 6b       	ori	r29, 0xB9	; 185
     5e6:	93 6b       	ori	r25, 0xB3	; 179
     5e8:	4d 6b       	ori	r20, 0xBD	; 189
     5ea:	06 6b       	ori	r16, 0xB6	; 182
     5ec:	bf 6a       	ori	r27, 0xAF	; 175
     5ee:	78 6a       	ori	r23, 0xA8	; 168
     5f0:	30 6a       	ori	r19, 0xA0	; 160
     5f2:	e8 69       	ori	r30, 0x98	; 152
     5f4:	a0 69       	ori	r26, 0x90	; 144
     5f6:	57 69       	ori	r21, 0x97	; 151
     5f8:	0e 69       	ori	r16, 0x9E	; 158
     5fa:	c4 68       	ori	r28, 0x84	; 132
     5fc:	7b 68       	ori	r23, 0x8B	; 139
     5fe:	31 68       	ori	r19, 0x81	; 129
     600:	e6 67       	ori	r30, 0x76	; 118
     602:	9b 67       	ori	r25, 0x7B	; 123
     604:	50 67       	ori	r21, 0x70	; 112
     606:	05 67       	ori	r16, 0x75	; 117
     608:	b9 66       	ori	r27, 0x69	; 105
     60a:	6d 66       	ori	r22, 0x6D	; 109
     60c:	20 66       	ori	r18, 0x60	; 96
     60e:	d4 65       	ori	r29, 0x54	; 84
     610:	87 65       	ori	r24, 0x57	; 87
     612:	39 65       	ori	r19, 0x59	; 89
     614:	ec 64       	ori	r30, 0x4C	; 76
     616:	9e 64       	ori	r25, 0x4E	; 78
     618:	4f 64       	ori	r20, 0x4F	; 79
     61a:	01 64       	ori	r16, 0x41	; 65
     61c:	b2 63       	ori	r27, 0x32	; 50
     61e:	63 63       	ori	r22, 0x33	; 51
     620:	13 63       	ori	r17, 0x33	; 51
     622:	c3 62       	ori	r28, 0x23	; 35
     624:	73 62       	ori	r23, 0x23	; 35
     626:	23 62       	ori	r18, 0x23	; 35
     628:	d2 61       	ori	r29, 0x12	; 18
     62a:	82 61       	ori	r24, 0x12	; 18
     62c:	30 61       	ori	r19, 0x10	; 16
     62e:	df 60       	ori	r29, 0x0F	; 15
     630:	8d 60       	ori	r24, 0x0D	; 13
     632:	3b 60       	ori	r19, 0x0B	; 11
     634:	e9 5f       	subi	r30, 0xF9	; 249
     636:	97 5f       	subi	r25, 0xF7	; 247
     638:	44 5f       	subi	r20, 0xF4	; 244
     63a:	f1 5e       	subi	r31, 0xE1	; 225
     63c:	9e 5e       	subi	r25, 0xEE	; 238
     63e:	4a 5e       	subi	r20, 0xEA	; 234
     640:	f6 5d       	subi	r31, 0xD6	; 214
     642:	a2 5d       	subi	r26, 0xD2	; 210
     644:	4e 5d       	subi	r20, 0xDE	; 222
     646:	fa 5c       	subi	r31, 0xCA	; 202
     648:	a5 5c       	subi	r26, 0xC5	; 197
     64a:	50 5c       	subi	r21, 0xC0	; 192
     64c:	fb 5b       	subi	r31, 0xBB	; 187
     64e:	a6 5b       	subi	r26, 0xB6	; 182
     650:	50 5b       	subi	r21, 0xB0	; 176
     652:	fb 5a       	subi	r31, 0xAB	; 171
     654:	a5 5a       	subi	r26, 0xA5	; 165
     656:	4e 5a       	subi	r20, 0xAE	; 174
     658:	f8 59       	subi	r31, 0x98	; 152
     65a:	a1 59       	subi	r26, 0x91	; 145
     65c:	4b 59       	subi	r20, 0x9B	; 155
     65e:	f4 58       	subi	r31, 0x84	; 132
     660:	9c 58       	subi	r25, 0x8C	; 140
     662:	45 58       	subi	r20, 0x85	; 133
     664:	ee 57       	subi	r30, 0x7E	; 126
     666:	96 57       	subi	r25, 0x76	; 118
     668:	3e 57       	subi	r19, 0x7E	; 126
     66a:	e6 56       	subi	r30, 0x66	; 102
     66c:	8e 56       	subi	r24, 0x6E	; 110
     66e:	35 56       	subi	r19, 0x65	; 101
     670:	dd 55       	subi	r29, 0x5D	; 93
     672:	84 55       	subi	r24, 0x54	; 84
     674:	2b 55       	subi	r18, 0x5B	; 91
     676:	d2 54       	subi	r29, 0x42	; 66
     678:	79 54       	subi	r23, 0x49	; 73
     67a:	1f 54       	subi	r17, 0x4F	; 79
     67c:	c6 53       	subi	r28, 0x36	; 54
     67e:	6c 53       	subi	r22, 0x3C	; 60
     680:	12 53       	subi	r17, 0x32	; 50
     682:	b8 52       	subi	r27, 0x28	; 40
     684:	5e 52       	subi	r21, 0x2E	; 46
     686:	04 52       	subi	r16, 0x24	; 36
     688:	aa 51       	subi	r26, 0x1A	; 26
     68a:	4f 51       	subi	r20, 0x1F	; 31
     68c:	f5 50       	subi	r31, 0x05	; 5
     68e:	9a 50       	subi	r25, 0x0A	; 10
     690:	40 50       	subi	r20, 0x00	; 0
     692:	e5 4f       	sbci	r30, 0xF5	; 245
     694:	8a 4f       	sbci	r24, 0xFA	; 250
     696:	2f 4f       	sbci	r18, 0xFF	; 255
     698:	d3 4e       	sbci	r29, 0xE3	; 227
     69a:	78 4e       	sbci	r23, 0xE8	; 232
     69c:	1d 4e       	sbci	r17, 0xED	; 237
     69e:	c1 4d       	sbci	r28, 0xD1	; 209
     6a0:	66 4d       	sbci	r22, 0xD6	; 214
     6a2:	0a 4d       	sbci	r16, 0xDA	; 218
     6a4:	af 4c       	sbci	r26, 0xCF	; 207
     6a6:	53 4c       	sbci	r21, 0xC3	; 195
     6a8:	f7 4b       	sbci	r31, 0xB7	; 183
     6aa:	9b 4b       	sbci	r25, 0xBB	; 187
     6ac:	3f 4b       	sbci	r19, 0xBF	; 191
     6ae:	e3 4a       	sbci	r30, 0xA3	; 163
     6b0:	87 4a       	sbci	r24, 0xA7	; 167
     6b2:	2b 4a       	sbci	r18, 0xAB	; 171
     6b4:	cf 49       	sbci	r28, 0x9F	; 159
     6b6:	73 49       	sbci	r23, 0x93	; 147
     6b8:	16 49       	sbci	r17, 0x96	; 150
     6ba:	ba 48       	sbci	r27, 0x8A	; 138
     6bc:	5e 48       	sbci	r21, 0x8E	; 142
     6be:	01 48       	sbci	r16, 0x81	; 129
     6c0:	a5 47       	sbci	r26, 0x75	; 117
     6c2:	49 47       	sbci	r20, 0x79	; 121
     6c4:	ec 46       	sbci	r30, 0x6C	; 108
     6c6:	90 46       	sbci	r25, 0x60	; 96
     6c8:	33 46       	sbci	r19, 0x63	; 99
     6ca:	d7 45       	sbci	r29, 0x57	; 87
     6cc:	7a 45       	sbci	r23, 0x5A	; 90
     6ce:	1e 45       	sbci	r17, 0x5E	; 94
     6d0:	c1 44       	sbci	r28, 0x41	; 65
     6d2:	65 44       	sbci	r22, 0x45	; 69
     6d4:	08 44       	sbci	r16, 0x48	; 72
     6d6:	ac 43       	sbci	r26, 0x3C	; 60
     6d8:	4f 43       	sbci	r20, 0x3F	; 63
     6da:	f3 42       	sbci	r31, 0x23	; 35
     6dc:	97 42       	sbci	r25, 0x27	; 39
     6de:	3a 42       	sbci	r19, 0x2A	; 42
     6e0:	de 41       	sbci	r29, 0x1E	; 30
     6e2:	81 41       	sbci	r24, 0x11	; 17
     6e4:	25 41       	sbci	r18, 0x15	; 21
     6e6:	c9 40       	sbci	r28, 0x09	; 9
     6e8:	6d 40       	sbci	r22, 0x0D	; 13
     6ea:	11 40       	sbci	r17, 0x01	; 1
     6ec:	b4 3f       	cpi	r27, 0xF4	; 244
     6ee:	58 3f       	cpi	r21, 0xF8	; 248
     6f0:	fc 3e       	cpi	r31, 0xEC	; 236
     6f2:	a0 3e       	cpi	r26, 0xE0	; 224
     6f4:	44 3e       	cpi	r20, 0xE4	; 228
     6f6:	e9 3d       	cpi	r30, 0xD9	; 217
     6f8:	8d 3d       	cpi	r24, 0xDD	; 221
     6fa:	31 3d       	cpi	r19, 0xD1	; 209
     6fc:	d6 3c       	cpi	r29, 0xC6	; 198
     6fe:	7a 3c       	cpi	r23, 0xCA	; 202
     700:	1f 3c       	cpi	r17, 0xCF	; 207
     702:	c3 3b       	cpi	r28, 0xB3	; 179
     704:	68 3b       	cpi	r22, 0xB8	; 184
     706:	0d 3b       	cpi	r16, 0xBD	; 189
     708:	b2 3a       	cpi	r27, 0xA2	; 162
     70a:	57 3a       	cpi	r21, 0xA7	; 167
     70c:	fc 39       	cpi	r31, 0x9C	; 156
     70e:	a1 39       	cpi	r26, 0x91	; 145
     710:	47 39       	cpi	r20, 0x97	; 151
     712:	ec 38       	cpi	r30, 0x8C	; 140
     714:	92 38       	cpi	r25, 0x82	; 130
     716:	37 38       	cpi	r19, 0x87	; 135
     718:	dd 37       	cpi	r29, 0x7D	; 125
     71a:	83 37       	cpi	r24, 0x73	; 115
     71c:	29 37       	cpi	r18, 0x79	; 121
     71e:	cf 36       	cpi	r28, 0x6F	; 111
     720:	76 36       	cpi	r23, 0x66	; 102
     722:	1c 36       	cpi	r17, 0x6C	; 108
     724:	c3 35       	cpi	r28, 0x53	; 83
     726:	6a 35       	cpi	r22, 0x5A	; 90
     728:	11 35       	cpi	r17, 0x51	; 81
     72a:	b8 34       	cpi	r27, 0x48	; 72
     72c:	5f 34       	cpi	r21, 0x4F	; 79
     72e:	06 34       	cpi	r16, 0x46	; 70
     730:	ae 33       	cpi	r26, 0x3E	; 62
     732:	56 33       	cpi	r21, 0x36	; 54
     734:	fe 32       	cpi	r31, 0x2E	; 46
     736:	a6 32       	cpi	r26, 0x26	; 38
     738:	4e 32       	cpi	r20, 0x2E	; 46
     73a:	f6 31       	cpi	r31, 0x16	; 22
     73c:	9f 31       	cpi	r25, 0x1F	; 31
     73e:	48 31       	cpi	r20, 0x18	; 24
     740:	f1 30       	cpi	r31, 0x01	; 1
     742:	9a 30       	cpi	r25, 0x0A	; 10
     744:	43 30       	cpi	r20, 0x03	; 3
     746:	ed 2f       	mov	r30, r29
     748:	97 2f       	mov	r25, r23
     74a:	41 2f       	mov	r20, r17
     74c:	eb 2e       	mov	r14, r27
     74e:	96 2e       	mov	r9, r22
     750:	40 2e       	mov	r4, r16
     752:	eb 2d       	mov	r30, r11
     754:	96 2d       	mov	r25, r6
     756:	42 2d       	mov	r20, r2
     758:	ed 2c       	mov	r14, r13
     75a:	99 2c       	mov	r9, r9
     75c:	45 2c       	mov	r4, r5
     75e:	f1 2b       	or	r31, r17
     760:	9e 2b       	or	r25, r30
     762:	4b 2b       	or	r20, r27
     764:	f8 2a       	or	r15, r24
     766:	a5 2a       	or	r10, r21
     768:	52 2a       	or	r5, r18
     76a:	00 2a       	or	r0, r16
     76c:	ae 29       	or	r26, r14
     76e:	5c 29       	or	r21, r12
     770:	0b 29       	or	r16, r11
     772:	ba 28       	or	r11, r10
     774:	69 28       	or	r6, r9
     776:	18 28       	or	r1, r8
     778:	c8 27       	eor	r28, r24
     77a:	78 27       	eor	r23, r24
     77c:	28 27       	eor	r18, r24
     77e:	d9 26       	eor	r13, r25
     780:	8a 26       	eor	r8, r26
     782:	3b 26       	eor	r3, r27
     784:	ec 25       	eor	r30, r12
     786:	9e 25       	eor	r25, r14
     788:	50 25       	eor	r21, r0
     78a:	02 25       	eor	r16, r2
     78c:	b5 24       	eor	r11, r5
     78e:	68 24       	eor	r6, r8
     790:	1b 24       	eor	r1, r11
     792:	cf 23       	and	r28, r31
     794:	82 23       	and	r24, r18
     796:	37 23       	and	r19, r23
     798:	eb 22       	and	r14, r27
     79a:	a0 22       	and	r10, r16
     79c:	55 22       	and	r5, r21
     79e:	0b 22       	and	r0, r27
     7a0:	c1 21       	and	r28, r1
     7a2:	77 21       	and	r23, r7
     7a4:	2e 21       	and	r18, r14
     7a6:	e4 20       	and	r14, r4
     7a8:	9c 20       	and	r9, r12
     7aa:	53 20       	and	r5, r3
     7ac:	0b 20       	and	r0, r11
     7ae:	c4 1f       	adc	r28, r20
     7b0:	7c 1f       	adc	r23, r28
     7b2:	35 1f       	adc	r19, r21
     7b4:	ef 1e       	adc	r14, r31
     7b6:	a9 1e       	adc	r10, r25
     7b8:	63 1e       	adc	r6, r19
     7ba:	1d 1e       	adc	r1, r29
     7bc:	d8 1d       	adc	r29, r8
     7be:	93 1d       	adc	r25, r3
     7c0:	4f 1d       	adc	r20, r15
     7c2:	0b 1d       	adc	r16, r11
     7c4:	c8 1c       	adc	r12, r8
     7c6:	84 1c       	adc	r8, r4
     7c8:	42 1c       	adc	r4, r2
     7ca:	ff 1b       	sub	r31, r31
     7cc:	bd 1b       	sub	r27, r29
     7ce:	7c 1b       	sub	r23, r28
     7d0:	3a 1b       	sub	r19, r26
     7d2:	fa 1a       	sub	r15, r26
     7d4:	b9 1a       	sub	r11, r25
     7d6:	79 1a       	sub	r7, r25
     7d8:	3a 1a       	sub	r3, r26
     7da:	fb 19       	sub	r31, r11
     7dc:	bc 19       	sub	r27, r12
     7de:	7e 19       	sub	r23, r14
     7e0:	40 19       	sub	r20, r0
     7e2:	02 19       	sub	r16, r2
     7e4:	c5 18       	sub	r12, r5
     7e6:	88 18       	sub	r8, r8
     7e8:	4c 18       	sub	r4, r12
     7ea:	10 18       	sub	r1, r0
     7ec:	d5 17       	cp	r29, r21
     7ee:	9a 17       	cp	r25, r26
     7f0:	60 17       	cp	r22, r16
     7f2:	26 17       	cp	r18, r22
     7f4:	ec 16       	cp	r14, r28
     7f6:	b3 16       	cp	r11, r19
     7f8:	7a 16       	cp	r7, r26
     7fa:	42 16       	cp	r4, r18
     7fc:	0a 16       	cp	r0, r26
     7fe:	d3 15       	cp	r29, r3
     800:	9c 15       	cp	r25, r12
     802:	66 15       	cp	r22, r6
     804:	30 15       	cp	r19, r0
     806:	fa 14       	cp	r15, r10
     808:	c5 14       	cp	r12, r5
     80a:	91 14       	cp	r9, r1
     80c:	5d 14       	cp	r5, r13
     80e:	29 14       	cp	r2, r9
     810:	f6 13       	cpse	r31, r22
     812:	c3 13       	cpse	r28, r19
     814:	91 13       	cpse	r25, r17
     816:	5f 13       	cpse	r21, r31
     818:	2e 13       	cpse	r18, r30
     81a:	fd 12       	cpse	r15, r29
     81c:	cd 12       	cpse	r12, r29
     81e:	9d 12       	cpse	r9, r29
     820:	6e 12       	cpse	r6, r30
     822:	3f 12       	cpse	r3, r31
     824:	11 12       	cpse	r1, r17
     826:	e3 11       	cpse	r30, r3
     828:	b6 11       	cpse	r27, r6
     82a:	89 11       	cpse	r24, r9
     82c:	5d 11       	cpse	r21, r13
     82e:	31 11       	cpse	r19, r1
     830:	05 11       	cpse	r16, r5
     832:	da 10       	cpse	r13, r10
     834:	b0 10       	cpse	r11, r0
     836:	86 10       	cpse	r8, r6
     838:	5d 10       	cpse	r5, r13
     83a:	34 10       	cpse	r3, r4
     83c:	0c 10       	cpse	r0, r12
     83e:	e4 0f       	add	r30, r20
     840:	bd 0f       	add	r27, r29
     842:	96 0f       	add	r25, r22
     844:	70 0f       	add	r23, r16
     846:	4a 0f       	add	r20, r26
     848:	25 0f       	add	r18, r21
     84a:	00 0f       	add	r16, r16
     84c:	dc 0e       	add	r13, r28
     84e:	b8 0e       	add	r11, r24
     850:	95 0e       	add	r9, r21
     852:	73 0e       	add	r7, r19
     854:	50 0e       	add	r5, r16
     856:	2f 0e       	add	r2, r31
     858:	0e 0e       	add	r0, r30
     85a:	ed 0d       	add	r30, r13
     85c:	cd 0d       	add	r28, r13
     85e:	ae 0d       	add	r26, r14
     860:	8f 0d       	add	r24, r15
     862:	71 0d       	add	r23, r1
     864:	53 0d       	add	r21, r3
     866:	36 0d       	add	r19, r6
     868:	19 0d       	add	r17, r9
     86a:	fd 0c       	add	r15, r13
     86c:	e1 0c       	add	r14, r1
     86e:	c6 0c       	add	r12, r6
     870:	ab 0c       	add	r10, r11
     872:	91 0c       	add	r9, r1
     874:	78 0c       	add	r7, r8
     876:	5f 0c       	add	r5, r15
     878:	46 0c       	add	r4, r6
     87a:	2f 0c       	add	r2, r15
     87c:	17 0c       	add	r1, r7
     87e:	01 0c       	add	r0, r1
     880:	ea 0b       	sbc	r30, r26
     882:	d5 0b       	sbc	r29, r21
     884:	c0 0b       	sbc	r28, r16
     886:	ab 0b       	sbc	r26, r27
     888:	97 0b       	sbc	r25, r23
     88a:	84 0b       	sbc	r24, r20
     88c:	71 0b       	sbc	r23, r17
     88e:	5e 0b       	sbc	r21, r30
     890:	4d 0b       	sbc	r20, r29
     892:	3c 0b       	sbc	r19, r28
     894:	2b 0b       	sbc	r18, r27
     896:	1b 0b       	sbc	r17, r27
     898:	0b 0b       	sbc	r16, r27
     89a:	fc 0a       	sbc	r15, r28
     89c:	ee 0a       	sbc	r14, r30
     89e:	e0 0a       	sbc	r14, r16
     8a0:	d3 0a       	sbc	r13, r19
     8a2:	c6 0a       	sbc	r12, r22
     8a4:	ba 0a       	sbc	r11, r26
     8a6:	ae 0a       	sbc	r10, r30
     8a8:	a3 0a       	sbc	r10, r19
     8aa:	99 0a       	sbc	r9, r25
     8ac:	8f 0a       	sbc	r8, r31
     8ae:	85 0a       	sbc	r8, r21
     8b0:	7d 0a       	sbc	r7, r29
     8b2:	74 0a       	sbc	r7, r20
     8b4:	6d 0a       	sbc	r6, r29
     8b6:	66 0a       	sbc	r6, r22
     8b8:	5f 0a       	sbc	r5, r31
     8ba:	59 0a       	sbc	r5, r25
     8bc:	54 0a       	sbc	r5, r20
     8be:	4f 0a       	sbc	r4, r31
     8c0:	4b 0a       	sbc	r4, r27
     8c2:	47 0a       	sbc	r4, r23
     8c4:	44 0a       	sbc	r4, r20
     8c6:	41 0a       	sbc	r4, r17
     8c8:	3f 0a       	sbc	r3, r31
     8ca:	3e 0a       	sbc	r3, r30
     8cc:	3d 0a       	sbc	r3, r29

000008ce <tbl_cos_sin>:
     8ce:	ff 7f       	andi	r31, 0xFF	; 255
     8d0:	00 00       	nop
     8d2:	fe 7f       	andi	r31, 0xFE	; 254
     8d4:	c9 00       	.word	0x00c9	; ????
     8d6:	fc 7f       	andi	r31, 0xFC	; 252
     8d8:	92 01       	movw	r18, r4
     8da:	f9 7f       	andi	r31, 0xF9	; 249
     8dc:	5b 02       	muls	r21, r27
     8de:	f5 7f       	andi	r31, 0xF5	; 245
     8e0:	24 03       	mulsu	r18, r20
     8e2:	ef 7f       	andi	r30, 0xFF	; 255
     8e4:	ed 03       	fmulsu	r22, r21
     8e6:	e8 7f       	andi	r30, 0xF8	; 248
     8e8:	b6 04       	cpc	r11, r6
     8ea:	e0 7f       	andi	r30, 0xF0	; 240
     8ec:	7e 05       	cpc	r23, r14
     8ee:	d7 7f       	andi	r29, 0xF7	; 247
     8f0:	47 06       	cpc	r4, r23
     8f2:	cd 7f       	andi	r28, 0xFD	; 253
     8f4:	10 07       	cpc	r17, r16
     8f6:	c1 7f       	andi	r28, 0xF1	; 241
     8f8:	d9 07       	cpc	r29, r25
     8fa:	b4 7f       	andi	r27, 0xF4	; 244
     8fc:	a1 08       	sbc	r10, r1
     8fe:	a6 7f       	andi	r26, 0xF6	; 246
     900:	6a 09       	sbc	r22, r10
     902:	96 7f       	andi	r25, 0xF6	; 246
     904:	32 0a       	sbc	r3, r18
     906:	86 7f       	andi	r24, 0xF6	; 246
     908:	fb 0a       	sbc	r15, r27
     90a:	74 7f       	andi	r23, 0xF4	; 244
     90c:	c3 0b       	sbc	r28, r19
     90e:	61 7f       	andi	r22, 0xF1	; 241
     910:	8b 0c       	add	r8, r11
     912:	4c 7f       	andi	r20, 0xFC	; 252
     914:	53 0d       	add	r21, r3
     916:	37 7f       	andi	r19, 0xF7	; 247
     918:	1b 0e       	add	r1, r27
     91a:	20 7f       	andi	r18, 0xF0	; 240
     91c:	e3 0e       	add	r14, r19
     91e:	08 7f       	andi	r16, 0xF8	; 248
     920:	ab 0f       	add	r26, r27
     922:	ef 7e       	andi	r30, 0xEF	; 239
     924:	72 10       	cpse	r7, r2
     926:	d4 7e       	andi	r29, 0xE4	; 228
     928:	39 11       	cpse	r19, r9
     92a:	b9 7e       	andi	r27, 0xE9	; 233
     92c:	00 12       	cpse	r0, r16
     92e:	9c 7e       	andi	r25, 0xEC	; 236
     930:	c7 12       	cpse	r12, r23
     932:	7e 7e       	andi	r23, 0xEE	; 238
     934:	8e 13       	cpse	r24, r30
     936:	5e 7e       	andi	r21, 0xEE	; 238
     938:	55 14       	cp	r5, r5
     93a:	3e 7e       	andi	r19, 0xEE	; 238
     93c:	1b 15       	cp	r17, r11
     93e:	1c 7e       	andi	r17, 0xEC	; 236
     940:	e1 15       	cp	r30, r1
     942:	f9 7d       	andi	r31, 0xD9	; 217
     944:	a7 16       	cp	r10, r23
     946:	d5 7d       	andi	r29, 0xD5	; 213
     948:	6d 17       	cp	r22, r29
     94a:	b0 7d       	andi	r27, 0xD0	; 208
     94c:	33 18       	sub	r3, r3
     94e:	89 7d       	andi	r24, 0xD9	; 217
     950:	f8 18       	sub	r15, r8
     952:	61 7d       	andi	r22, 0xD1	; 209
     954:	bd 19       	sub	r27, r13
     956:	38 7d       	andi	r19, 0xD8	; 216
     958:	82 1a       	sub	r8, r18
     95a:	0e 7d       	andi	r16, 0xDE	; 222
     95c:	46 1b       	sub	r20, r22
     95e:	e2 7c       	andi	r30, 0xC2	; 194
     960:	0b 1c       	adc	r0, r11
     962:	b6 7c       	andi	r27, 0xC6	; 198
     964:	cf 1c       	adc	r12, r15
     966:	88 7c       	andi	r24, 0xC8	; 200
     968:	93 1d       	adc	r25, r3
     96a:	59 7c       	andi	r21, 0xC9	; 201
     96c:	56 1e       	adc	r5, r22
     96e:	29 7c       	andi	r18, 0xC9	; 201
     970:	19 1f       	adc	r17, r25
     972:	f7 7b       	andi	r31, 0xB7	; 183
     974:	dc 1f       	adc	r29, r28
     976:	c4 7b       	andi	r28, 0xB4	; 180
     978:	9f 20       	and	r9, r15
     97a:	91 7b       	andi	r25, 0xB1	; 177
     97c:	61 21       	and	r22, r1
     97e:	5c 7b       	andi	r21, 0xBC	; 188
     980:	23 22       	and	r2, r19
     982:	25 7b       	andi	r18, 0xB5	; 181
     984:	e4 22       	and	r14, r20
     986:	ee 7a       	andi	r30, 0xAE	; 174
     988:	a6 23       	and	r26, r22
     98a:	b5 7a       	andi	r27, 0xA5	; 165
     98c:	67 24       	eor	r6, r7
     98e:	7c 7a       	andi	r23, 0xAC	; 172
     990:	27 25       	eor	r18, r7
     992:	41 7a       	andi	r20, 0xA1	; 161
     994:	e7 25       	eor	r30, r7
     996:	04 7a       	andi	r16, 0xA4	; 164
     998:	a7 26       	eor	r10, r23
     99a:	c7 79       	andi	r28, 0x97	; 151
     99c:	67 27       	eor	r22, r23
     99e:	89 79       	andi	r24, 0x99	; 153
     9a0:	26 28       	or	r2, r6
     9a2:	49 79       	andi	r20, 0x99	; 153
     9a4:	e5 28       	or	r14, r5
     9a6:	08 79       	andi	r16, 0x98	; 152
     9a8:	a3 29       	or	r26, r3
     9aa:	c6 78       	andi	r28, 0x86	; 134
     9ac:	61 2a       	or	r6, r17
     9ae:	83 78       	andi	r24, 0x83	; 131
     9b0:	1e 2b       	or	r17, r30
     9b2:	3f 78       	andi	r19, 0x8F	; 143
     9b4:	db 2b       	or	r29, r27
     9b6:	f9 77       	andi	r31, 0x79	; 121
     9b8:	98 2c       	mov	r9, r8
     9ba:	b3 77       	andi	r27, 0x73	; 115
     9bc:	54 2d       	mov	r21, r4
     9be:	6b 77       	andi	r22, 0x7B	; 123
     9c0:	10 2e       	mov	r1, r16
     9c2:	22 77       	andi	r18, 0x72	; 114
     9c4:	cc 2e       	mov	r12, r28
     9c6:	d8 76       	andi	r29, 0x68	; 104
     9c8:	86 2f       	mov	r24, r22
     9ca:	8d 76       	andi	r24, 0x6D	; 109
     9cc:	41 30       	cpi	r20, 0x01	; 1
     9ce:	40 76       	andi	r20, 0x60	; 96
     9d0:	fb 30       	cpi	r31, 0x0B	; 11
     9d2:	f3 75       	andi	r31, 0x53	; 83
     9d4:	b4 31       	cpi	r27, 0x14	; 20
     9d6:	a4 75       	andi	r26, 0x54	; 84
     9d8:	6d 32       	cpi	r22, 0x2D	; 45
     9da:	54 75       	andi	r21, 0x54	; 84
     9dc:	26 33       	cpi	r18, 0x36	; 54
     9de:	03 75       	andi	r16, 0x53	; 83
     9e0:	de 33       	cpi	r29, 0x3E	; 62
     9e2:	b1 74       	andi	r27, 0x41	; 65
     9e4:	96 34       	cpi	r25, 0x46	; 70
     9e6:	5e 74       	andi	r21, 0x4E	; 78
     9e8:	4d 35       	cpi	r20, 0x5D	; 93
     9ea:	0a 74       	andi	r16, 0x4A	; 74
     9ec:	03 36       	cpi	r16, 0x63	; 99
     9ee:	b5 73       	andi	r27, 0x35	; 53
     9f0:	b9 36       	cpi	r27, 0x69	; 105
     9f2:	5e 73       	andi	r21, 0x3E	; 62
     9f4:	6f 37       	cpi	r22, 0x7F	; 127
     9f6:	06 73       	andi	r16, 0x36	; 54
     9f8:	24 38       	cpi	r18, 0x84	; 132
     9fa:	ae 72       	andi	r26, 0x2E	; 46
     9fc:	d8 38       	cpi	r29, 0x88	; 136
     9fe:	54 72       	andi	r21, 0x24	; 36
     a00:	8c 39       	cpi	r24, 0x9C	; 156
     a02:	f9 71       	andi	r31, 0x19	; 25
     a04:	3f 3a       	cpi	r19, 0xAF	; 175
     a06:	9d 71       	andi	r25, 0x1D	; 29
     a08:	f2 3a       	cpi	r31, 0xA2	; 162
     a0a:	40 71       	andi	r20, 0x10	; 16
     a0c:	a4 3b       	cpi	r26, 0xB4	; 180
     a0e:	e1 70       	andi	r30, 0x01	; 1
     a10:	56 3c       	cpi	r21, 0xC6	; 198
     a12:	82 70       	andi	r24, 0x02	; 2
     a14:	07 3d       	cpi	r16, 0xD7	; 215
     a16:	22 70       	andi	r18, 0x02	; 2
     a18:	b7 3d       	cpi	r27, 0xD7	; 215
     a1a:	c0 6f       	ori	r28, 0xF0	; 240
     a1c:	67 3e       	cpi	r22, 0xE7	; 231
     a1e:	5e 6f       	ori	r21, 0xFE	; 254
     a20:	16 3f       	cpi	r17, 0xF6	; 246
     a22:	fa 6e       	ori	r31, 0xEA	; 234
     a24:	c5 3f       	cpi	r28, 0xF5	; 245
     a26:	95 6e       	ori	r25, 0xE5	; 229
     a28:	73 40       	sbci	r23, 0x03	; 3
     a2a:	30 6e       	ori	r19, 0xE0	; 224
     a2c:	20 41       	sbci	r18, 0x10	; 16
     a2e:	c9 6d       	ori	r28, 0xD9	; 217
     a30:	cd 41       	sbci	r28, 0x1D	; 29
     a32:	61 6d       	ori	r22, 0xD1	; 209
     a34:	79 42       	sbci	r23, 0x29	; 41
     a36:	f8 6c       	ori	r31, 0xC8	; 200
     a38:	25 43       	sbci	r18, 0x35	; 53
     a3a:	8e 6c       	ori	r24, 0xCE	; 206
     a3c:	d0 43       	sbci	r29, 0x30	; 48
     a3e:	23 6c       	ori	r18, 0xC3	; 195
     a40:	7a 44       	sbci	r23, 0x4A	; 74
     a42:	b7 6b       	ori	r27, 0xB7	; 183
     a44:	23 45       	sbci	r18, 0x53	; 83
     a46:	4a 6b       	ori	r20, 0xBA	; 186
     a48:	cc 45       	sbci	r28, 0x5C	; 92
     a4a:	db 6a       	ori	r29, 0xAB	; 171
     a4c:	74 46       	sbci	r23, 0x64	; 100
     a4e:	6c 6a       	ori	r22, 0xAC	; 172
     a50:	1c 47       	sbci	r17, 0x7C	; 124
     a52:	fc 69       	ori	r31, 0x9C	; 156
     a54:	c3 47       	sbci	r28, 0x73	; 115
     a56:	8b 69       	ori	r24, 0x9B	; 155
     a58:	69 48       	sbci	r22, 0x89	; 137
     a5a:	19 69       	ori	r17, 0x99	; 153
     a5c:	0e 49       	sbci	r16, 0x9E	; 158
     a5e:	a5 68       	ori	r26, 0x85	; 133
     a60:	b3 49       	sbci	r27, 0x93	; 147
     a62:	31 68       	ori	r19, 0x81	; 129
     a64:	57 4a       	sbci	r21, 0xA7	; 167
     a66:	bc 67       	ori	r27, 0x7C	; 124
     a68:	fa 4a       	sbci	r31, 0xAA	; 170
     a6a:	45 67       	ori	r20, 0x75	; 117
     a6c:	9d 4b       	sbci	r25, 0xBD	; 189
     a6e:	ce 66       	ori	r28, 0x6E	; 110
     a70:	3f 4c       	sbci	r19, 0xCF	; 207
     a72:	56 66       	ori	r21, 0x66	; 102
     a74:	e0 4c       	sbci	r30, 0xC0	; 192
     a76:	dd 65       	ori	r29, 0x5D	; 93
     a78:	80 4d       	sbci	r24, 0xD0	; 208
     a7a:	62 65       	ori	r22, 0x52	; 82
     a7c:	20 4e       	sbci	r18, 0xE0	; 224
     a7e:	e7 64       	ori	r30, 0x47	; 71
     a80:	bf 4e       	sbci	r27, 0xEF	; 239
     a82:	6b 64       	ori	r22, 0x4B	; 75
     a84:	5d 4f       	sbci	r21, 0xFD	; 253
     a86:	ee 63       	ori	r30, 0x3E	; 62
     a88:	fa 4f       	sbci	r31, 0xFA	; 250
     a8a:	70 63       	ori	r23, 0x30	; 48
     a8c:	97 50       	subi	r25, 0x07	; 7
     a8e:	f1 62       	ori	r31, 0x21	; 33
     a90:	33 51       	subi	r19, 0x13	; 19
     a92:	71 62       	ori	r23, 0x21	; 33
     a94:	ce 51       	subi	r28, 0x1E	; 30
     a96:	f0 61       	ori	r31, 0x10	; 16
     a98:	68 52       	subi	r22, 0x28	; 40
     a9a:	6e 61       	ori	r22, 0x1E	; 30
     a9c:	01 53       	subi	r16, 0x31	; 49
     a9e:	eb 60       	ori	r30, 0x0B	; 11
     aa0:	9a 53       	subi	r25, 0x3A	; 58
     aa2:	67 60       	ori	r22, 0x07	; 7
     aa4:	32 54       	subi	r19, 0x42	; 66
     aa6:	e2 5f       	subi	r30, 0xF2	; 242
     aa8:	c9 54       	subi	r28, 0x49	; 73
     aaa:	5d 5f       	subi	r21, 0xFD	; 253
     aac:	5f 55       	subi	r21, 0x5F	; 95
     aae:	d6 5e       	subi	r29, 0xE6	; 230
     ab0:	f4 55       	subi	r31, 0x54	; 84
     ab2:	4f 5e       	subi	r20, 0xEF	; 239
     ab4:	89 56       	subi	r24, 0x69	; 105
     ab6:	c6 5d       	subi	r28, 0xD6	; 214
     ab8:	1d 57       	subi	r17, 0x7D	; 125
     aba:	3d 5d       	subi	r19, 0xDD	; 221
     abc:	b0 57       	subi	r27, 0x70	; 112
     abe:	b3 5c       	subi	r27, 0xC3	; 195
     ac0:	42 58       	subi	r20, 0x82	; 130
     ac2:	28 5c       	subi	r18, 0xC8	; 200
     ac4:	d3 58       	subi	r29, 0x83	; 131
     ac6:	9c 5b       	subi	r25, 0xBC	; 188
     ac8:	63 59       	subi	r22, 0x93	; 147
     aca:	0f 5b       	subi	r16, 0xBF	; 191
     acc:	f3 59       	subi	r31, 0x93	; 147
     ace:	81 5a       	subi	r24, 0xA1	; 161
     ad0:	81 5a       	subi	r24, 0xA1	; 161
     ad2:	f3 59       	subi	r31, 0x93	; 147
     ad4:	0f 5b       	subi	r16, 0xBF	; 191
     ad6:	63 59       	subi	r22, 0x93	; 147
     ad8:	9c 5b       	subi	r25, 0xBC	; 188
     ada:	d3 58       	subi	r29, 0x83	; 131
     adc:	28 5c       	subi	r18, 0xC8	; 200
     ade:	42 58       	subi	r20, 0x82	; 130
     ae0:	b3 5c       	subi	r27, 0xC3	; 195
     ae2:	b0 57       	subi	r27, 0x70	; 112
     ae4:	3d 5d       	subi	r19, 0xDD	; 221
     ae6:	1d 57       	subi	r17, 0x7D	; 125
     ae8:	c6 5d       	subi	r28, 0xD6	; 214
     aea:	89 56       	subi	r24, 0x69	; 105
     aec:	4f 5e       	subi	r20, 0xEF	; 239
     aee:	f4 55       	subi	r31, 0x54	; 84
     af0:	d6 5e       	subi	r29, 0xE6	; 230
     af2:	5f 55       	subi	r21, 0x5F	; 95
     af4:	5d 5f       	subi	r21, 0xFD	; 253
     af6:	c9 54       	subi	r28, 0x49	; 73
     af8:	e2 5f       	subi	r30, 0xF2	; 242
     afa:	32 54       	subi	r19, 0x42	; 66
     afc:	67 60       	ori	r22, 0x07	; 7
     afe:	9a 53       	subi	r25, 0x3A	; 58
     b00:	eb 60       	ori	r30, 0x0B	; 11
     b02:	01 53       	subi	r16, 0x31	; 49
     b04:	6e 61       	ori	r22, 0x1E	; 30
     b06:	68 52       	subi	r22, 0x28	; 40
     b08:	f0 61       	ori	r31, 0x10	; 16
     b0a:	ce 51       	subi	r28, 0x1E	; 30
     b0c:	71 62       	ori	r23, 0x21	; 33
     b0e:	33 51       	subi	r19, 0x13	; 19
     b10:	f1 62       	ori	r31, 0x21	; 33
     b12:	97 50       	subi	r25, 0x07	; 7
     b14:	70 63       	ori	r23, 0x30	; 48
     b16:	fa 4f       	sbci	r31, 0xFA	; 250
     b18:	ee 63       	ori	r30, 0x3E	; 62
     b1a:	5d 4f       	sbci	r21, 0xFD	; 253
     b1c:	6b 64       	ori	r22, 0x4B	; 75
     b1e:	bf 4e       	sbci	r27, 0xEF	; 239
     b20:	e7 64       	ori	r30, 0x47	; 71
     b22:	20 4e       	sbci	r18, 0xE0	; 224
     b24:	62 65       	ori	r22, 0x52	; 82
     b26:	80 4d       	sbci	r24, 0xD0	; 208
     b28:	dd 65       	ori	r29, 0x5D	; 93
     b2a:	e0 4c       	sbci	r30, 0xC0	; 192
     b2c:	56 66       	ori	r21, 0x66	; 102
     b2e:	3f 4c       	sbci	r19, 0xCF	; 207
     b30:	ce 66       	ori	r28, 0x6E	; 110
     b32:	9d 4b       	sbci	r25, 0xBD	; 189
     b34:	45 67       	ori	r20, 0x75	; 117
     b36:	fa 4a       	sbci	r31, 0xAA	; 170
     b38:	bc 67       	ori	r27, 0x7C	; 124
     b3a:	57 4a       	sbci	r21, 0xA7	; 167
     b3c:	31 68       	ori	r19, 0x81	; 129
     b3e:	b3 49       	sbci	r27, 0x93	; 147
     b40:	a5 68       	ori	r26, 0x85	; 133
     b42:	0e 49       	sbci	r16, 0x9E	; 158
     b44:	19 69       	ori	r17, 0x99	; 153
     b46:	69 48       	sbci	r22, 0x89	; 137
     b48:	8b 69       	ori	r24, 0x9B	; 155
     b4a:	c3 47       	sbci	r28, 0x73	; 115
     b4c:	fc 69       	ori	r31, 0x9C	; 156
     b4e:	1c 47       	sbci	r17, 0x7C	; 124
     b50:	6c 6a       	ori	r22, 0xAC	; 172
     b52:	74 46       	sbci	r23, 0x64	; 100
     b54:	db 6a       	ori	r29, 0xAB	; 171
     b56:	cc 45       	sbci	r28, 0x5C	; 92
     b58:	4a 6b       	ori	r20, 0xBA	; 186
     b5a:	23 45       	sbci	r18, 0x53	; 83
     b5c:	b7 6b       	ori	r27, 0xB7	; 183
     b5e:	7a 44       	sbci	r23, 0x4A	; 74
     b60:	23 6c       	ori	r18, 0xC3	; 195
     b62:	d0 43       	sbci	r29, 0x30	; 48
     b64:	8e 6c       	ori	r24, 0xCE	; 206
     b66:	25 43       	sbci	r18, 0x35	; 53
     b68:	f8 6c       	ori	r31, 0xC8	; 200
     b6a:	79 42       	sbci	r23, 0x29	; 41
     b6c:	61 6d       	ori	r22, 0xD1	; 209
     b6e:	cd 41       	sbci	r28, 0x1D	; 29
     b70:	c9 6d       	ori	r28, 0xD9	; 217
     b72:	20 41       	sbci	r18, 0x10	; 16
     b74:	30 6e       	ori	r19, 0xE0	; 224
     b76:	73 40       	sbci	r23, 0x03	; 3
     b78:	95 6e       	ori	r25, 0xE5	; 229
     b7a:	c5 3f       	cpi	r28, 0xF5	; 245
     b7c:	fa 6e       	ori	r31, 0xEA	; 234
     b7e:	16 3f       	cpi	r17, 0xF6	; 246
     b80:	5e 6f       	ori	r21, 0xFE	; 254
     b82:	67 3e       	cpi	r22, 0xE7	; 231
     b84:	c0 6f       	ori	r28, 0xF0	; 240
     b86:	b7 3d       	cpi	r27, 0xD7	; 215
     b88:	22 70       	andi	r18, 0x02	; 2
     b8a:	07 3d       	cpi	r16, 0xD7	; 215
     b8c:	82 70       	andi	r24, 0x02	; 2
     b8e:	56 3c       	cpi	r21, 0xC6	; 198
     b90:	e1 70       	andi	r30, 0x01	; 1
     b92:	a4 3b       	cpi	r26, 0xB4	; 180
     b94:	40 71       	andi	r20, 0x10	; 16
     b96:	f2 3a       	cpi	r31, 0xA2	; 162
     b98:	9d 71       	andi	r25, 0x1D	; 29
     b9a:	3f 3a       	cpi	r19, 0xAF	; 175
     b9c:	f9 71       	andi	r31, 0x19	; 25
     b9e:	8c 39       	cpi	r24, 0x9C	; 156
     ba0:	54 72       	andi	r21, 0x24	; 36
     ba2:	d8 38       	cpi	r29, 0x88	; 136
     ba4:	ae 72       	andi	r26, 0x2E	; 46
     ba6:	24 38       	cpi	r18, 0x84	; 132
     ba8:	06 73       	andi	r16, 0x36	; 54
     baa:	6f 37       	cpi	r22, 0x7F	; 127
     bac:	5e 73       	andi	r21, 0x3E	; 62
     bae:	b9 36       	cpi	r27, 0x69	; 105
     bb0:	b5 73       	andi	r27, 0x35	; 53
     bb2:	03 36       	cpi	r16, 0x63	; 99
     bb4:	0a 74       	andi	r16, 0x4A	; 74
     bb6:	4d 35       	cpi	r20, 0x5D	; 93
     bb8:	5e 74       	andi	r21, 0x4E	; 78
     bba:	96 34       	cpi	r25, 0x46	; 70
     bbc:	b1 74       	andi	r27, 0x41	; 65
     bbe:	de 33       	cpi	r29, 0x3E	; 62
     bc0:	03 75       	andi	r16, 0x53	; 83
     bc2:	26 33       	cpi	r18, 0x36	; 54
     bc4:	54 75       	andi	r21, 0x54	; 84
     bc6:	6d 32       	cpi	r22, 0x2D	; 45
     bc8:	a4 75       	andi	r26, 0x54	; 84
     bca:	b4 31       	cpi	r27, 0x14	; 20
     bcc:	f3 75       	andi	r31, 0x53	; 83
     bce:	fb 30       	cpi	r31, 0x0B	; 11
     bd0:	40 76       	andi	r20, 0x60	; 96
     bd2:	41 30       	cpi	r20, 0x01	; 1
     bd4:	8d 76       	andi	r24, 0x6D	; 109
     bd6:	86 2f       	mov	r24, r22
     bd8:	d8 76       	andi	r29, 0x68	; 104
     bda:	cc 2e       	mov	r12, r28
     bdc:	22 77       	andi	r18, 0x72	; 114
     bde:	10 2e       	mov	r1, r16
     be0:	6b 77       	andi	r22, 0x7B	; 123
     be2:	54 2d       	mov	r21, r4
     be4:	b3 77       	andi	r27, 0x73	; 115
     be6:	98 2c       	mov	r9, r8
     be8:	f9 77       	andi	r31, 0x79	; 121
     bea:	db 2b       	or	r29, r27
     bec:	3f 78       	andi	r19, 0x8F	; 143
     bee:	1e 2b       	or	r17, r30
     bf0:	83 78       	andi	r24, 0x83	; 131
     bf2:	61 2a       	or	r6, r17
     bf4:	c6 78       	andi	r28, 0x86	; 134
     bf6:	a3 29       	or	r26, r3
     bf8:	08 79       	andi	r16, 0x98	; 152
     bfa:	e5 28       	or	r14, r5
     bfc:	49 79       	andi	r20, 0x99	; 153
     bfe:	26 28       	or	r2, r6
     c00:	89 79       	andi	r24, 0x99	; 153
     c02:	67 27       	eor	r22, r23
     c04:	c7 79       	andi	r28, 0x97	; 151
     c06:	a7 26       	eor	r10, r23
     c08:	04 7a       	andi	r16, 0xA4	; 164
     c0a:	e8 25       	eor	r30, r8
     c0c:	41 7a       	andi	r20, 0xA1	; 161
     c0e:	27 25       	eor	r18, r7
     c10:	7c 7a       	andi	r23, 0xAC	; 172
     c12:	67 24       	eor	r6, r7
     c14:	b5 7a       	andi	r27, 0xA5	; 165
     c16:	a6 23       	and	r26, r22
     c18:	ee 7a       	andi	r30, 0xAE	; 174
     c1a:	e5 22       	and	r14, r21
     c1c:	25 7b       	andi	r18, 0xB5	; 181
     c1e:	23 22       	and	r2, r19
     c20:	5c 7b       	andi	r21, 0xBC	; 188
     c22:	61 21       	and	r22, r1
     c24:	91 7b       	andi	r25, 0xB1	; 177
     c26:	9f 20       	and	r9, r15
     c28:	c4 7b       	andi	r28, 0xB4	; 180
     c2a:	dc 1f       	adc	r29, r28
     c2c:	f7 7b       	andi	r31, 0xB7	; 183
     c2e:	19 1f       	adc	r17, r25
     c30:	29 7c       	andi	r18, 0xC9	; 201
     c32:	56 1e       	adc	r5, r22
     c34:	59 7c       	andi	r21, 0xC9	; 201
     c36:	93 1d       	adc	r25, r3
     c38:	88 7c       	andi	r24, 0xC8	; 200
     c3a:	cf 1c       	adc	r12, r15
     c3c:	b6 7c       	andi	r27, 0xC6	; 198
     c3e:	0b 1c       	adc	r0, r11
     c40:	e2 7c       	andi	r30, 0xC2	; 194
     c42:	47 1b       	sub	r20, r23
     c44:	0e 7d       	andi	r16, 0xDE	; 222
     c46:	82 1a       	sub	r8, r18
     c48:	38 7d       	andi	r19, 0xD8	; 216
     c4a:	bd 19       	sub	r27, r13
     c4c:	61 7d       	andi	r22, 0xD1	; 209
     c4e:	f8 18       	sub	r15, r8
     c50:	89 7d       	andi	r24, 0xD9	; 217
     c52:	33 18       	sub	r3, r3
     c54:	b0 7d       	andi	r27, 0xD0	; 208
     c56:	6d 17       	cp	r22, r29
     c58:	d5 7d       	andi	r29, 0xD5	; 213
     c5a:	a7 16       	cp	r10, r23
     c5c:	f9 7d       	andi	r31, 0xD9	; 217
     c5e:	e1 15       	cp	r30, r1
     c60:	1c 7e       	andi	r17, 0xEC	; 236
     c62:	1b 15       	cp	r17, r11
     c64:	3e 7e       	andi	r19, 0xEE	; 238
     c66:	55 14       	cp	r5, r5
     c68:	5e 7e       	andi	r21, 0xEE	; 238
     c6a:	8e 13       	cpse	r24, r30
     c6c:	7e 7e       	andi	r23, 0xEE	; 238
     c6e:	c7 12       	cpse	r12, r23
     c70:	9c 7e       	andi	r25, 0xEC	; 236
     c72:	00 12       	cpse	r0, r16
     c74:	b9 7e       	andi	r27, 0xE9	; 233
     c76:	39 11       	cpse	r19, r9
     c78:	d4 7e       	andi	r29, 0xE4	; 228
     c7a:	72 10       	cpse	r7, r2
     c7c:	ef 7e       	andi	r30, 0xEF	; 239
     c7e:	ab 0f       	add	r26, r27
     c80:	08 7f       	andi	r16, 0xF8	; 248
     c82:	e3 0e       	add	r14, r19
     c84:	20 7f       	andi	r18, 0xF0	; 240
     c86:	1b 0e       	add	r1, r27
     c88:	37 7f       	andi	r19, 0xF7	; 247
     c8a:	53 0d       	add	r21, r3
     c8c:	4c 7f       	andi	r20, 0xFC	; 252
     c8e:	8b 0c       	add	r8, r11
     c90:	61 7f       	andi	r22, 0xF1	; 241
     c92:	c3 0b       	sbc	r28, r19
     c94:	74 7f       	andi	r23, 0xF4	; 244
     c96:	fb 0a       	sbc	r15, r27
     c98:	86 7f       	andi	r24, 0xF6	; 246
     c9a:	32 0a       	sbc	r3, r18
     c9c:	96 7f       	andi	r25, 0xF6	; 246
     c9e:	6a 09       	sbc	r22, r10
     ca0:	a6 7f       	andi	r26, 0xF6	; 246
     ca2:	a1 08       	sbc	r10, r1
     ca4:	b4 7f       	andi	r27, 0xF4	; 244
     ca6:	d9 07       	cpc	r29, r25
     ca8:	c1 7f       	andi	r28, 0xF1	; 241
     caa:	10 07       	cpc	r17, r16
     cac:	cd 7f       	andi	r28, 0xFD	; 253
     cae:	47 06       	cpc	r4, r23
     cb0:	d7 7f       	andi	r29, 0xF7	; 247
     cb2:	7f 05       	cpc	r23, r15
     cb4:	e0 7f       	andi	r30, 0xF0	; 240
     cb6:	b6 04       	cpc	r11, r6
     cb8:	e8 7f       	andi	r30, 0xF8	; 248
     cba:	ed 03       	fmulsu	r22, r21
     cbc:	ef 7f       	andi	r30, 0xFF	; 255
     cbe:	24 03       	mulsu	r18, r20
     cc0:	f5 7f       	andi	r31, 0xF5	; 245
     cc2:	5b 02       	muls	r21, r27
     cc4:	f9 7f       	andi	r31, 0xF9	; 249
     cc6:	92 01       	movw	r18, r4
     cc8:	fc 7f       	andi	r31, 0xFC	; 252
     cca:	c9 00       	.word	0x00c9	; ????
     ccc:	fe 7f       	andi	r31, 0xFE	; 254
     cce:	00 00       	nop
     cd0:	fe 7f       	andi	r31, 0xFE	; 254
     cd2:	37 ff       	sbrs	r19, 7
     cd4:	fe 7f       	andi	r31, 0xFE	; 254
     cd6:	6e fe       	.word	0xfe6e	; ????
     cd8:	fc 7f       	andi	r31, 0xFC	; 252
     cda:	a5 fd       	sbrc	r26, 5
     cdc:	f9 7f       	andi	r31, 0xF9	; 249
     cde:	dc fc       	.word	0xfcdc	; ????
     ce0:	f5 7f       	andi	r31, 0xF5	; 245
     ce2:	13 fc       	sbrc	r1, 3
     ce4:	ef 7f       	andi	r30, 0xFF	; 255
     ce6:	4a fb       	.word	0xfb4a	; ????
     ce8:	e8 7f       	andi	r30, 0xF8	; 248
     cea:	82 fa       	bst	r8, 2
     cec:	e0 7f       	andi	r30, 0xF0	; 240
     cee:	b9 f9       	.word	0xf9b9	; ????
     cf0:	d7 7f       	andi	r29, 0xF7	; 247
     cf2:	f0 f8       	bld	r15, 0
     cf4:	cd 7f       	andi	r28, 0xFD	; 253
     cf6:	27 f8       	bld	r2, 7
     cf8:	c1 7f       	andi	r28, 0xF1	; 241
     cfa:	5f f7       	brid	.-42     	; 0xcd2 <tbl_cos_sin+0x404>
     cfc:	b4 7f       	andi	r27, 0xF4	; 244
     cfe:	96 f6       	brtc	.-92     	; 0xca4 <tbl_cos_sin+0x3d6>
     d00:	a6 7f       	andi	r26, 0xF6	; 246
     d02:	ce f5       	brtc	.+114    	; 0xd76 <tbl_cos_sin+0x4a8>
     d04:	96 7f       	andi	r25, 0xF6	; 246
     d06:	05 f5       	brhc	.+64     	; 0xd48 <tbl_cos_sin+0x47a>
     d08:	86 7f       	andi	r24, 0xF6	; 246
     d0a:	3d f4       	brhc	.+14     	; 0xd1a <tbl_cos_sin+0x44c>
     d0c:	74 7f       	andi	r23, 0xF4	; 244
     d0e:	75 f3       	brhs	.-36     	; 0xcec <tbl_cos_sin+0x41e>
     d10:	61 7f       	andi	r22, 0xF1	; 241
     d12:	ad f2       	brhs	.-86     	; 0xcbe <tbl_cos_sin+0x3f0>
     d14:	4c 7f       	andi	r20, 0xFC	; 252
     d16:	e5 f1       	brhs	.+120    	; 0xd90 <tbl_cos_sin+0x4c2>
     d18:	37 7f       	andi	r19, 0xF7	; 247
     d1a:	1d f1       	brhs	.+70     	; 0xd62 <tbl_cos_sin+0x494>
     d1c:	20 7f       	andi	r18, 0xF0	; 240
     d1e:	56 f0       	brts	.+20     	; 0xd34 <tbl_cos_sin+0x466>
     d20:	08 7f       	andi	r16, 0xF8	; 248
     d22:	8e ef       	ldi	r24, 0xFE	; 254
     d24:	ef 7e       	andi	r30, 0xEF	; 239
     d26:	c7 ee       	ldi	r28, 0xE7	; 231
     d28:	d4 7e       	andi	r29, 0xE4	; 228
     d2a:	00 ee       	ldi	r16, 0xE0	; 224
     d2c:	b9 7e       	andi	r27, 0xE9	; 233
     d2e:	39 ed       	ldi	r19, 0xD9	; 217
     d30:	9c 7e       	andi	r25, 0xEC	; 236
     d32:	72 ec       	ldi	r23, 0xC2	; 194
     d34:	7e 7e       	andi	r23, 0xEE	; 238
     d36:	ab eb       	ldi	r26, 0xBB	; 187
     d38:	5e 7e       	andi	r21, 0xEE	; 238
     d3a:	e5 ea       	ldi	r30, 0xA5	; 165
     d3c:	3e 7e       	andi	r19, 0xEE	; 238
     d3e:	1f ea       	ldi	r17, 0xAF	; 175
     d40:	1c 7e       	andi	r17, 0xEC	; 236
     d42:	59 e9       	ldi	r21, 0x99	; 153
     d44:	f9 7d       	andi	r31, 0xD9	; 217
     d46:	93 e8       	ldi	r25, 0x83	; 131
     d48:	d5 7d       	andi	r29, 0xD5	; 213
     d4a:	cd e7       	ldi	r28, 0x7D	; 125
     d4c:	b0 7d       	andi	r27, 0xD0	; 208
     d4e:	08 e7       	ldi	r16, 0x78	; 120
     d50:	89 7d       	andi	r24, 0xD9	; 217
     d52:	43 e6       	ldi	r20, 0x63	; 99
     d54:	61 7d       	andi	r22, 0xD1	; 209
     d56:	7e e5       	ldi	r23, 0x5E	; 94
     d58:	38 7d       	andi	r19, 0xD8	; 216
     d5a:	ba e4       	ldi	r27, 0x4A	; 74
     d5c:	0e 7d       	andi	r16, 0xDE	; 222
     d5e:	f5 e3       	ldi	r31, 0x35	; 53
     d60:	e2 7c       	andi	r30, 0xC2	; 194
     d62:	31 e3       	ldi	r19, 0x31	; 49
     d64:	b6 7c       	andi	r27, 0xC6	; 198
     d66:	6d e2       	ldi	r22, 0x2D	; 45
     d68:	88 7c       	andi	r24, 0xC8	; 200
     d6a:	aa e1       	ldi	r26, 0x1A	; 26
     d6c:	59 7c       	andi	r21, 0xC9	; 201
     d6e:	e7 e0       	ldi	r30, 0x07	; 7
     d70:	29 7c       	andi	r18, 0xC9	; 201
     d72:	24 e0       	ldi	r18, 0x04	; 4
     d74:	f7 7b       	andi	r31, 0xB7	; 183
     d76:	61 df       	rcall	.-318    	; 0xc3a <tbl_cos_sin+0x36c>
     d78:	c4 7b       	andi	r28, 0xB4	; 180
     d7a:	9f de       	rcall	.-706    	; 0xaba <tbl_cos_sin+0x1ec>
     d7c:	91 7b       	andi	r25, 0xB1	; 177
     d7e:	dd dd       	rcall	.-1094   	; 0x93a <tbl_cos_sin+0x6c>
     d80:	5c 7b       	andi	r21, 0xBC	; 188
     d82:	1c dd       	rcall	.-1480   	; 0x7bc <__FUSE_REGION_LENGTH__+0x3bc>
     d84:	25 7b       	andi	r18, 0xB5	; 181
     d86:	5a dc       	rcall	.-1868   	; 0x63c <__FUSE_REGION_LENGTH__+0x23c>
     d88:	ee 7a       	andi	r30, 0xAE	; 174
     d8a:	99 db       	rcall	.-2254   	; 0x4be <__FUSE_REGION_LENGTH__+0xbe>
     d8c:	b5 7a       	andi	r27, 0xA5	; 165
     d8e:	d9 da       	rcall	.-2638   	; 0x342 <tbl_window_1024+0x274>
     d90:	7c 7a       	andi	r23, 0xAC	; 172
     d92:	19 da       	rcall	.-3022   	; 0x1c6 <tbl_window_1024+0xf8>
     d94:	41 7a       	andi	r20, 0xA1	; 161
     d96:	59 d9       	rcall	.-3406   	; 0x4a <__SREG__+0xb>
     d98:	04 7a       	andi	r16, 0xA4	; 164
     d9a:	99 d8       	rcall	.-3790   	; 0xfffffece <__eeprom_end+0xff7efece>
     d9c:	c7 79       	andi	r28, 0x97	; 151
     d9e:	da d7       	rcall	.+4020   	; 0x1d54 <fft_output_128+0xec>
     da0:	89 79       	andi	r24, 0x99	; 153
     da2:	1b d7       	rcall	.+3638   	; 0x1bda <fft_execute_128+0x106>
     da4:	49 79       	andi	r20, 0x99	; 153
     da6:	5d d6       	rcall	.+3258   	; 0x1a62 <tbl_bitrev+0x6c>
     da8:	08 79       	andi	r16, 0x98	; 152
     daa:	9f d5       	rcall	.+2878   	; 0x18ea <tbl_window_128+0xf4>
     dac:	c6 78       	andi	r28, 0x86	; 134
     dae:	e2 d4       	rcall	.+2500   	; 0x1774 <fft_output_1024+0xb4>
     db0:	83 78       	andi	r24, 0x83	; 131
     db2:	25 d4       	rcall	.+2122   	; 0x15fe <fft_execute_1024+0xd2>
     db4:	3f 78       	andi	r19, 0x8F	; 143
     db6:	68 d3       	rcall	.+1744   	; 0x1488 <tbl_bitrev+0x3ba>
     db8:	f9 77       	andi	r31, 0x79	; 121
     dba:	ac d2       	rcall	.+1368   	; 0x1314 <tbl_bitrev+0x246>
     dbc:	b3 77       	andi	r27, 0x73	; 115
     dbe:	f0 d1       	rcall	.+992    	; 0x11a0 <tbl_bitrev+0xd2>
     dc0:	6b 77       	andi	r22, 0x7B	; 123
     dc2:	35 d1       	rcall	.+618    	; 0x102e <tbl_cos_sin+0x760>
     dc4:	22 77       	andi	r18, 0x72	; 114
     dc6:	7a d0       	rcall	.+244    	; 0xebc <tbl_cos_sin+0x5ee>
     dc8:	d8 76       	andi	r29, 0x68	; 104
     dca:	bf cf       	rjmp	.-130    	; 0xd4a <tbl_cos_sin+0x47c>
     dcc:	8d 76       	andi	r24, 0x6D	; 109
     dce:	05 cf       	rjmp	.-502    	; 0xbda <tbl_cos_sin+0x30c>
     dd0:	40 76       	andi	r20, 0x60	; 96
     dd2:	4c ce       	rjmp	.-872    	; 0xa6c <tbl_cos_sin+0x19e>
     dd4:	f3 75       	andi	r31, 0x53	; 83
     dd6:	93 cd       	rjmp	.-1242   	; 0x8fe <tbl_cos_sin+0x30>
     dd8:	a4 75       	andi	r26, 0x54	; 84
     dda:	da cc       	rjmp	.-1612   	; 0x790 <__FUSE_REGION_LENGTH__+0x390>
     ddc:	54 75       	andi	r21, 0x54	; 84
     dde:	22 cc       	rjmp	.-1980   	; 0x624 <__FUSE_REGION_LENGTH__+0x224>
     de0:	03 75       	andi	r16, 0x53	; 83
     de2:	6a cb       	rjmp	.-2348   	; 0x4b8 <__FUSE_REGION_LENGTH__+0xb8>
     de4:	b1 74       	andi	r27, 0x41	; 65
     de6:	b3 ca       	rjmp	.-2714   	; 0x34e <tbl_window_1024+0x280>
     de8:	5e 74       	andi	r21, 0x4E	; 78
     dea:	fd c9       	rjmp	.-3078   	; 0x1e6 <tbl_window_1024+0x118>
     dec:	0a 74       	andi	r16, 0x4A	; 74
     dee:	47 c9       	rjmp	.-3442   	; 0x7e <__SREG__+0x3f>
     df0:	b5 73       	andi	r27, 0x35	; 53
     df2:	91 c8       	rjmp	.-3806   	; 0xffffff16 <__eeprom_end+0xff7eff16>
     df4:	5e 73       	andi	r21, 0x3E	; 62
     df6:	dc c7       	rjmp	.+4024   	; 0x1db0 <tbl_window_256+0x12>
     df8:	06 73       	andi	r16, 0x36	; 54
     dfa:	28 c7       	rjmp	.+3664   	; 0x1c4c <fft_execute_128+0x178>
     dfc:	ae 72       	andi	r26, 0x2E	; 46
     dfe:	74 c6       	rjmp	.+3304   	; 0x1ae8 <fft_execute_128+0x14>
     e00:	54 72       	andi	r21, 0x24	; 36
     e02:	c1 c5       	rjmp	.+2946   	; 0x1986 <tbl_cos_sin+0x90>
     e04:	f9 71       	andi	r31, 0x19	; 25
     e06:	0e c5       	rjmp	.+2588   	; 0x1824 <tbl_window_128+0x2e>
     e08:	9d 71       	andi	r25, 0x1D	; 29
     e0a:	5c c4       	rjmp	.+2232   	; 0x16c4 <fft_output_1024+0x4>
     e0c:	40 71       	andi	r20, 0x10	; 16
     e0e:	aa c3       	rjmp	.+1876   	; 0x1564 <fft_execute_1024+0x38>
     e10:	e1 70       	andi	r30, 0x01	; 1
     e12:	f9 c2       	rjmp	.+1522   	; 0x1406 <tbl_bitrev+0x338>
     e14:	82 70       	andi	r24, 0x02	; 2
     e16:	49 c2       	rjmp	.+1170   	; 0x12aa <tbl_bitrev+0x1dc>
     e18:	22 70       	andi	r18, 0x02	; 2
     e1a:	99 c1       	rjmp	.+818    	; 0x114e <tbl_bitrev+0x80>
     e1c:	c0 6f       	ori	r28, 0xF0	; 240
     e1e:	ea c0       	rjmp	.+468    	; 0xff4 <tbl_cos_sin+0x726>
     e20:	5e 6f       	ori	r21, 0xFE	; 254
     e22:	3b c0       	rjmp	.+118    	; 0xe9a <tbl_cos_sin+0x5cc>
     e24:	fa 6e       	ori	r31, 0xEA	; 234
     e26:	8d bf       	out	0x3d, r24	; 61
     e28:	95 6e       	ori	r25, 0xE5	; 229
     e2a:	e0 be       	out	0x30, r14	; 48
     e2c:	30 6e       	ori	r19, 0xE0	; 224
     e2e:	33 be       	out	0x33, r3	; 51
     e30:	c9 6d       	ori	r28, 0xD9	; 217
     e32:	87 bd       	out	0x27, r24	; 39
     e34:	61 6d       	ori	r22, 0xD1	; 209
     e36:	db bc       	out	0x2b, r13	; 43
     e38:	f8 6c       	ori	r31, 0xC8	; 200
     e3a:	30 bc       	out	0x20, r3	; 32
     e3c:	8e 6c       	ori	r24, 0xCE	; 206
     e3e:	86 bb       	out	0x16, r24	; 22
     e40:	23 6c       	ori	r18, 0xC3	; 195
     e42:	dd ba       	out	0x1d, r13	; 29
     e44:	b7 6b       	ori	r27, 0xB7	; 183
     e46:	34 ba       	out	0x14, r3	; 20
     e48:	4a 6b       	ori	r20, 0xBA	; 186
     e4a:	8c b9       	out	0x0c, r24	; 12
     e4c:	db 6a       	ori	r29, 0xAB	; 171
     e4e:	e4 b8       	out	0x04, r14	; 4
     e50:	6c 6a       	ori	r22, 0xAC	; 172
     e52:	3d b8       	out	0x0d, r3	; 13
     e54:	fc 69       	ori	r31, 0x9C	; 156
     e56:	97 b7       	in	r25, 0x37	; 55
     e58:	8b 69       	ori	r24, 0x9B	; 155
     e5a:	f2 b6       	in	r15, 0x32	; 50
     e5c:	19 69       	ori	r17, 0x99	; 153
     e5e:	4d b6       	in	r4, 0x3d	; 61
     e60:	a5 68       	ori	r26, 0x85	; 133
     e62:	a9 b5       	in	r26, 0x29	; 41
     e64:	31 68       	ori	r19, 0x81	; 129
     e66:	06 b5       	in	r16, 0x26	; 38
     e68:	bc 67       	ori	r27, 0x7C	; 124
     e6a:	63 b4       	in	r6, 0x23	; 35
     e6c:	46 67       	ori	r20, 0x76	; 118
     e6e:	c1 b3       	in	r28, 0x11	; 17
     e70:	ce 66       	ori	r28, 0x6E	; 110
     e72:	20 b3       	in	r18, 0x10	; 16
     e74:	56 66       	ori	r21, 0x66	; 102
     e76:	80 b2       	in	r8, 0x10	; 16
     e78:	dd 65       	ori	r29, 0x5D	; 93
     e7a:	e0 b1       	in	r30, 0x00	; 0
     e7c:	62 65       	ori	r22, 0x52	; 82
     e7e:	41 b1       	in	r20, 0x01	; 1
     e80:	e7 64       	ori	r30, 0x47	; 71
     e82:	a3 b0       	in	r10, 0x03	; 3
     e84:	6b 64       	ori	r22, 0x4B	; 75
     e86:	06 b0       	in	r0, 0x06	; 6
     e88:	ee 63       	ori	r30, 0x3E	; 62
     e8a:	69 af       	std	Y+57, r22	; 0x39
     e8c:	70 63       	ori	r23, 0x30	; 48
     e8e:	cd ae       	std	Y+61, r12	; 0x3d
     e90:	f1 62       	ori	r31, 0x21	; 33
     e92:	32 ae       	std	Z+58, r3	; 0x3a
     e94:	71 62       	ori	r23, 0x21	; 33
     e96:	98 ad       	ldd	r25, Y+56	; 0x38
     e98:	f0 61       	ori	r31, 0x10	; 16
     e9a:	ff ac       	ldd	r15, Y+63	; 0x3f
     e9c:	6e 61       	ori	r22, 0x1E	; 30
     e9e:	66 ac       	ldd	r6, Z+62	; 0x3e
     ea0:	eb 60       	ori	r30, 0x0B	; 11
     ea2:	ce ab       	std	Y+54, r28	; 0x36
     ea4:	67 60       	ori	r22, 0x07	; 7
     ea6:	37 ab       	std	Z+55, r19	; 0x37
     ea8:	e2 5f       	subi	r30, 0xF2	; 242
     eaa:	a1 aa       	std	Z+49, r10	; 0x31
     eac:	5d 5f       	subi	r21, 0xFD	; 253
     eae:	0c aa       	std	Y+52, r0	; 0x34
     eb0:	d6 5e       	subi	r29, 0xE6	; 230
     eb2:	77 a9       	ldd	r23, Z+55	; 0x37
     eb4:	4f 5e       	subi	r20, 0xEF	; 239
     eb6:	e3 a8       	ldd	r14, Z+51	; 0x33
     eb8:	c6 5d       	subi	r28, 0xD6	; 214
     eba:	50 a8       	ldd	r5, Z+48	; 0x30
     ebc:	3d 5d       	subi	r19, 0xDD	; 221
     ebe:	be a7       	std	Y+46, r27	; 0x2e
     ec0:	b3 5c       	subi	r27, 0xC3	; 195
     ec2:	2d a7       	std	Y+45, r18	; 0x2d
     ec4:	28 5c       	subi	r18, 0xC8	; 200
     ec6:	9d a6       	std	Y+45, r9	; 0x2d
     ec8:	9c 5b       	subi	r25, 0xBC	; 188
     eca:	0d a6       	std	Y+45, r0	; 0x2d
     ecc:	0f 5b       	subi	r16, 0xBF	; 191
     ece:	7f a5       	ldd	r23, Y+47	; 0x2f
     ed0:	81 5a       	subi	r24, 0xA1	; 161
     ed2:	f1 a4       	ldd	r15, Z+41	; 0x29
     ed4:	f3 59       	subi	r31, 0x93	; 147
     ed6:	64 a4       	ldd	r6, Z+44	; 0x2c
     ed8:	63 59       	subi	r22, 0x93	; 147
     eda:	d8 a3       	std	Y+32, r29	; 0x20
     edc:	d3 58       	subi	r29, 0x83	; 131
     ede:	4d a3       	std	Y+37, r20	; 0x25
     ee0:	42 58       	subi	r20, 0x82	; 130
     ee2:	c3 a2       	std	Z+35, r12	; 0x23
     ee4:	b0 57       	subi	r27, 0x70	; 112
     ee6:	3a a2       	std	Y+34, r3	; 0x22
     ee8:	1d 57       	subi	r17, 0x7D	; 125
     eea:	b1 a1       	ldd	r27, Z+33	; 0x21
     eec:	89 56       	subi	r24, 0x69	; 105
     eee:	2a a1       	ldd	r18, Y+34	; 0x22
     ef0:	f5 55       	subi	r31, 0x55	; 85
     ef2:	a3 a0       	ldd	r10, Z+35	; 0x23
     ef4:	5f 55       	subi	r21, 0x5F	; 95
     ef6:	1e a0       	ldd	r1, Y+38	; 0x26
     ef8:	c9 54       	subi	r28, 0x49	; 73
     efa:	99 9f       	mul	r25, r25
     efc:	32 54       	subi	r19, 0x42	; 66
     efe:	15 9f       	mul	r17, r21
     f00:	9a 53       	subi	r25, 0x3A	; 58
     f02:	92 9e       	mul	r9, r18
     f04:	01 53       	subi	r16, 0x31	; 49
     f06:	10 9e       	mul	r1, r16
     f08:	68 52       	subi	r22, 0x28	; 40
     f0a:	8f 9d       	mul	r24, r15
     f0c:	ce 51       	subi	r28, 0x1E	; 30
     f0e:	0f 9d       	mul	r16, r15
     f10:	33 51       	subi	r19, 0x13	; 19
     f12:	90 9c       	mul	r9, r0
     f14:	97 50       	subi	r25, 0x07	; 7
     f16:	12 9c       	mul	r1, r2
     f18:	fa 4f       	sbci	r31, 0xFA	; 250
     f1a:	95 9b       	sbis	0x12, 5	; 18
     f1c:	5d 4f       	sbci	r21, 0xFD	; 253
     f1e:	19 9b       	sbis	0x03, 1	; 3
     f20:	bf 4e       	sbci	r27, 0xEF	; 239
     f22:	9e 9a       	sbi	0x13, 6	; 19
     f24:	20 4e       	sbci	r18, 0xE0	; 224
     f26:	23 9a       	sbi	0x04, 3	; 4
     f28:	80 4d       	sbci	r24, 0xD0	; 208
     f2a:	aa 99       	sbic	0x15, 2	; 21
     f2c:	e0 4c       	sbci	r30, 0xC0	; 192
     f2e:	32 99       	sbic	0x06, 2	; 6
     f30:	3f 4c       	sbci	r19, 0xCF	; 207
     f32:	bb 98       	cbi	0x17, 3	; 23
     f34:	9d 4b       	sbci	r25, 0xBD	; 189
     f36:	44 98       	cbi	0x08, 4	; 8
     f38:	fa 4a       	sbci	r31, 0xAA	; 170
     f3a:	cf 97       	sbiw	r24, 0x3f	; 63
     f3c:	57 4a       	sbci	r21, 0xA7	; 167
     f3e:	5b 97       	sbiw	r26, 0x1b	; 27
     f40:	b3 49       	sbci	r27, 0x93	; 147
     f42:	e7 96       	adiw	r28, 0x37	; 55
     f44:	0e 49       	sbci	r16, 0x9E	; 158
     f46:	75 96       	adiw	r30, 0x15	; 21
     f48:	69 48       	sbci	r22, 0x89	; 137
     f4a:	04 96       	adiw	r24, 0x04	; 4
     f4c:	c3 47       	sbci	r28, 0x73	; 115
     f4e:	94 95       	.word	0x9594	; ????
     f50:	1c 47       	sbci	r17, 0x7C	; 124
     f52:	25 95       	asr	r18
     f54:	74 46       	sbci	r23, 0x64	; 100
     f56:	b6 94       	lsr	r11
     f58:	cc 45       	sbci	r28, 0x5C	; 92
     f5a:	49 94       	.word	0x9449	; ????
     f5c:	23 45       	sbci	r18, 0x53	; 83
     f5e:	dd 93       	st	X+, r29
     f60:	7a 44       	sbci	r23, 0x4A	; 74
     f62:	72 93       	st	-Z, r23
     f64:	d0 43       	sbci	r29, 0x30	; 48
     f66:	08 93       	.word	0x9308	; ????
     f68:	25 43       	sbci	r18, 0x35	; 53
     f6a:	9f 92       	push	r9
     f6c:	79 42       	sbci	r23, 0x29	; 41
     f6e:	37 92       	lat	Z, r3
     f70:	cd 41       	sbci	r28, 0x1D	; 29
     f72:	d1 91       	ld	r29, Z+
     f74:	20 41       	sbci	r18, 0x10	; 16
     f76:	6b 91       	.word	0x916b	; ????
     f78:	73 40       	sbci	r23, 0x03	; 3
     f7a:	06 91       	elpm	r16, Z
     f7c:	c5 3f       	cpi	r28, 0xF5	; 245
     f7e:	a2 90       	ld	r10, -Z
     f80:	16 3f       	cpi	r17, 0xF6	; 246
     f82:	40 90 67 3e 	lds	r4, 0x3E67	; 0x803e67 <__bss_end+0x3529>
     f86:	de 8f       	std	Y+30, r29	; 0x1e
     f88:	b7 3d       	cpi	r27, 0xD7	; 215
     f8a:	7e 8f       	std	Y+30, r23	; 0x1e
     f8c:	07 3d       	cpi	r16, 0xD7	; 215
     f8e:	1f 8f       	std	Y+31, r17	; 0x1f
     f90:	56 3c       	cpi	r21, 0xC6	; 198
     f92:	c0 8e       	std	Z+24, r12	; 0x18
     f94:	a4 3b       	cpi	r26, 0xB4	; 180
     f96:	63 8e       	std	Z+27, r6	; 0x1b
     f98:	f2 3a       	cpi	r31, 0xA2	; 162
     f9a:	07 8e       	std	Z+31, r0	; 0x1f
     f9c:	3f 3a       	cpi	r19, 0xAF	; 175
     f9e:	ac 8d       	ldd	r26, Y+28	; 0x1c
     fa0:	8c 39       	cpi	r24, 0x9C	; 156
     fa2:	52 8d       	ldd	r21, Z+26	; 0x1a
     fa4:	d8 38       	cpi	r29, 0x88	; 136
     fa6:	fa 8c       	ldd	r15, Y+26	; 0x1a
     fa8:	24 38       	cpi	r18, 0x84	; 132
     faa:	a2 8c       	ldd	r10, Z+26	; 0x1a
     fac:	6f 37       	cpi	r22, 0x7F	; 127
     fae:	4c 8c       	ldd	r4, Y+28	; 0x1c
     fb0:	b9 36       	cpi	r27, 0x69	; 105
     fb2:	f6 8b       	std	Z+22, r31	; 0x16
     fb4:	03 36       	cpi	r16, 0x63	; 99
     fb6:	a2 8b       	std	Z+18, r26	; 0x12
     fb8:	4d 35       	cpi	r20, 0x5D	; 93
     fba:	4f 8b       	std	Y+23, r20	; 0x17
     fbc:	96 34       	cpi	r25, 0x46	; 70
     fbe:	fd 8a       	std	Y+21, r15	; 0x15
     fc0:	de 33       	cpi	r29, 0x3E	; 62
     fc2:	ac 8a       	std	Y+20, r10	; 0x14
     fc4:	26 33       	cpi	r18, 0x36	; 54
     fc6:	5c 8a       	std	Y+20, r5	; 0x14
     fc8:	6e 32       	cpi	r22, 0x2E	; 46
     fca:	0d 8a       	std	Y+21, r0	; 0x15
     fcc:	b4 31       	cpi	r27, 0x14	; 20
     fce:	c0 89       	ldd	r28, Z+16	; 0x10
     fd0:	fb 30       	cpi	r31, 0x0B	; 11
     fd2:	73 89       	ldd	r23, Z+19	; 0x13
     fd4:	41 30       	cpi	r20, 0x01	; 1
     fd6:	28 89       	ldd	r18, Y+16	; 0x10
     fd8:	87 2f       	mov	r24, r23
     fda:	de 88       	ldd	r13, Y+22	; 0x16
     fdc:	cc 2e       	mov	r12, r28
     fde:	95 88       	ldd	r9, Z+21	; 0x15
     fe0:	10 2e       	mov	r1, r16
     fe2:	4d 88       	ldd	r4, Y+21	; 0x15
     fe4:	54 2d       	mov	r21, r4
     fe6:	07 88       	ldd	r0, Z+23	; 0x17
     fe8:	98 2c       	mov	r9, r8
     fea:	c1 87       	std	Z+9, r28	; 0x09
     fec:	dc 2b       	or	r29, r28
     fee:	7d 87       	std	Y+13, r23	; 0x0d
     ff0:	1e 2b       	or	r17, r30
     ff2:	3a 87       	std	Y+10, r19	; 0x0a
     ff4:	61 2a       	or	r6, r17
     ff6:	f8 86       	std	Y+8, r15	; 0x08
     ff8:	a3 29       	or	r26, r3
     ffa:	b7 86       	std	Z+15, r11	; 0x0f
     ffc:	e5 28       	or	r14, r5
     ffe:	77 86       	std	Z+15, r7	; 0x0f
    1000:	26 28       	or	r2, r6
    1002:	39 86       	std	Y+9, r3	; 0x09
    1004:	67 27       	eor	r22, r23
    1006:	fc 85       	ldd	r31, Y+12	; 0x0c
    1008:	a7 26       	eor	r10, r23
    100a:	bf 85       	ldd	r27, Y+15	; 0x0f
    100c:	e8 25       	eor	r30, r8
    100e:	84 85       	ldd	r24, Z+12	; 0x0c
    1010:	27 25       	eor	r18, r7
    1012:	4b 85       	ldd	r20, Y+11	; 0x0b
    1014:	67 24       	eor	r6, r7
    1016:	12 85       	ldd	r17, Z+10	; 0x0a
    1018:	a6 23       	and	r26, r22
    101a:	db 84       	ldd	r13, Y+11	; 0x0b
    101c:	e5 22       	and	r14, r21
    101e:	a4 84       	ldd	r10, Z+12	; 0x0c
    1020:	23 22       	and	r2, r19
    1022:	6f 84       	ldd	r6, Y+15	; 0x0f
    1024:	61 21       	and	r22, r1
    1026:	3c 84       	ldd	r3, Y+12	; 0x0c
    1028:	9f 20       	and	r9, r15
    102a:	09 84       	ldd	r0, Y+9	; 0x09
    102c:	dc 1f       	adc	r29, r28
    102e:	d8 83       	st	Y, r29
    1030:	19 1f       	adc	r17, r25
    1032:	a7 83       	std	Z+7, r26	; 0x07
    1034:	56 1e       	adc	r5, r22
    1036:	78 83       	st	Y, r23
    1038:	93 1d       	adc	r25, r3
    103a:	4a 83       	std	Y+2, r20	; 0x02
    103c:	cf 1c       	adc	r12, r15
    103e:	1e 83       	std	Y+6, r17	; 0x06
    1040:	0b 1c       	adc	r0, r11
    1042:	f2 82       	std	Z+2, r15	; 0x02
    1044:	47 1b       	sub	r20, r23
    1046:	c8 82       	st	Y, r12
    1048:	82 1a       	sub	r8, r18
    104a:	9f 82       	std	Y+7, r9	; 0x07
    104c:	bd 19       	sub	r27, r13
    104e:	77 82       	std	Z+7, r7	; 0x07
    1050:	f8 18       	sub	r15, r8
    1052:	51 82       	std	Z+1, r5	; 0x01
    1054:	33 18       	sub	r3, r3
    1056:	2b 82       	std	Y+3, r2	; 0x03
    1058:	6d 17       	cp	r22, r29
    105a:	07 82       	std	Z+7, r0	; 0x07
    105c:	a7 16       	cp	r10, r23
    105e:	e4 81       	ldd	r30, Z+4	; 0x04
    1060:	e1 15       	cp	r30, r1
    1062:	c2 81       	ldd	r28, Z+2	; 0x02
    1064:	1b 15       	cp	r17, r11
    1066:	a2 81       	ldd	r26, Z+2	; 0x02
    1068:	55 14       	cp	r5, r5
    106a:	82 81       	ldd	r24, Z+2	; 0x02
    106c:	8e 13       	cpse	r24, r30
    106e:	64 81       	ldd	r22, Z+4	; 0x04
    1070:	c7 12       	cpse	r12, r23
    1072:	47 81       	ldd	r20, Z+7	; 0x07
    1074:	01 12       	cpse	r0, r17
    1076:	2c 81       	ldd	r18, Y+4	; 0x04
    1078:	39 11       	cpse	r19, r9
    107a:	11 81       	ldd	r17, Z+1	; 0x01
    107c:	72 10       	cpse	r7, r2
    107e:	f8 80       	ld	r15, Y
    1080:	ab 0f       	add	r26, r27
    1082:	e0 80       	ld	r14, Z
    1084:	e3 0e       	add	r14, r19
    1086:	c9 80       	ldd	r12, Y+1	; 0x01
    1088:	1b 0e       	add	r1, r27
    108a:	b4 80       	ldd	r11, Z+4	; 0x04
    108c:	53 0d       	add	r21, r3
    108e:	9f 80       	ldd	r9, Y+7	; 0x07
    1090:	8b 0c       	add	r8, r11
    1092:	8c 80       	ldd	r8, Y+4	; 0x04
    1094:	c3 0b       	sbc	r28, r19
    1096:	7a 80       	ldd	r7, Y+2	; 0x02
    1098:	fb 0a       	sbc	r15, r27
    109a:	6a 80       	ldd	r6, Y+2	; 0x02
    109c:	33 0a       	sbc	r3, r19
    109e:	5a 80       	ldd	r5, Y+2	; 0x02
    10a0:	6a 09       	sbc	r22, r10
    10a2:	4c 80       	ldd	r4, Y+4	; 0x04
    10a4:	a2 08       	sbc	r10, r2
    10a6:	3f 80       	ldd	r3, Y+7	; 0x07
    10a8:	d9 07       	cpc	r29, r25
    10aa:	33 80       	ldd	r3, Z+3	; 0x03
    10ac:	10 07       	cpc	r17, r16
    10ae:	29 80       	ldd	r2, Y+1	; 0x01
    10b0:	47 06       	cpc	r4, r23
    10b2:	20 80       	ld	r2, Z
    10b4:	7f 05       	cpc	r23, r15
    10b6:	18 80       	ld	r1, Y
    10b8:	b6 04       	cpc	r11, r6
    10ba:	11 80       	ldd	r1, Z+1	; 0x01
    10bc:	ed 03       	fmulsu	r22, r21
    10be:	0b 80       	ldd	r0, Y+3	; 0x03
    10c0:	24 03       	mulsu	r18, r20
    10c2:	07 80       	ldd	r0, Z+7	; 0x07
    10c4:	5b 02       	muls	r21, r27
    10c6:	04 80       	ldd	r0, Z+4	; 0x04
    10c8:	92 01       	movw	r18, r4
    10ca:	02 80       	ldd	r0, Z+2	; 0x02
    10cc:	c9 00       	.word	0x00c9	; ????

000010ce <tbl_bitrev>:
    10ce:	00 00       	nop
    10d0:	00 08       	sbc	r0, r0
    10d2:	00 04       	cpc	r0, r0
    10d4:	00 0c       	add	r0, r0
    10d6:	00 02       	muls	r16, r16
    10d8:	00 0a       	sbc	r0, r16
    10da:	00 06       	cpc	r0, r16
    10dc:	00 0e       	add	r0, r16
    10de:	00 01       	movw	r0, r0
    10e0:	00 09       	sbc	r16, r0
    10e2:	00 05       	cpc	r16, r0
    10e4:	00 0d       	add	r16, r0
    10e6:	00 03       	mulsu	r16, r16
    10e8:	00 0b       	sbc	r16, r16
    10ea:	00 07       	cpc	r16, r16
    10ec:	00 0f       	add	r16, r16
    10ee:	80 00       	.word	0x0080	; ????
    10f0:	80 08       	sbc	r8, r0
    10f2:	80 04       	cpc	r8, r0
    10f4:	80 0c       	add	r8, r0
    10f6:	80 02       	muls	r24, r16
    10f8:	80 0a       	sbc	r8, r16
    10fa:	80 06       	cpc	r8, r16
    10fc:	80 0e       	add	r8, r16
    10fe:	80 01       	movw	r16, r0
    1100:	80 09       	sbc	r24, r0
    1102:	80 05       	cpc	r24, r0
    1104:	80 0d       	add	r24, r0
    1106:	80 03       	fmuls	r16, r16
    1108:	80 0b       	sbc	r24, r16
    110a:	80 07       	cpc	r24, r16
    110c:	80 0f       	add	r24, r16
    110e:	40 00       	.word	0x0040	; ????
    1110:	40 08       	sbc	r4, r0
    1112:	40 04       	cpc	r4, r0
    1114:	40 0c       	add	r4, r0
    1116:	40 02       	muls	r20, r16
    1118:	40 0a       	sbc	r4, r16
    111a:	40 06       	cpc	r4, r16
    111c:	40 0e       	add	r4, r16
    111e:	40 01       	movw	r8, r0
    1120:	40 09       	sbc	r20, r0
    1122:	40 05       	cpc	r20, r0
    1124:	40 0d       	add	r20, r0
    1126:	40 03       	mulsu	r20, r16
    1128:	40 0b       	sbc	r20, r16
    112a:	40 07       	cpc	r20, r16
    112c:	40 0f       	add	r20, r16
    112e:	c0 00       	.word	0x00c0	; ????
    1130:	c0 08       	sbc	r12, r0
    1132:	c0 04       	cpc	r12, r0
    1134:	c0 0c       	add	r12, r0
    1136:	c0 02       	muls	r28, r16
    1138:	c0 0a       	sbc	r12, r16
    113a:	c0 06       	cpc	r12, r16
    113c:	c0 0e       	add	r12, r16
    113e:	c0 01       	movw	r24, r0
    1140:	c0 09       	sbc	r28, r0
    1142:	c0 05       	cpc	r28, r0
    1144:	c0 0d       	add	r28, r0
    1146:	c0 03       	fmuls	r20, r16
    1148:	c0 0b       	sbc	r28, r16
    114a:	c0 07       	cpc	r28, r16
    114c:	c0 0f       	add	r28, r16
    114e:	20 00       	.word	0x0020	; ????
    1150:	20 08       	sbc	r2, r0
    1152:	20 04       	cpc	r2, r0
    1154:	20 0c       	add	r2, r0
    1156:	20 02       	muls	r18, r16
    1158:	20 0a       	sbc	r2, r16
    115a:	20 06       	cpc	r2, r16
    115c:	20 0e       	add	r2, r16
    115e:	20 01       	movw	r4, r0
    1160:	20 09       	sbc	r18, r0
    1162:	20 05       	cpc	r18, r0
    1164:	20 0d       	add	r18, r0
    1166:	20 03       	mulsu	r18, r16
    1168:	20 0b       	sbc	r18, r16
    116a:	20 07       	cpc	r18, r16
    116c:	20 0f       	add	r18, r16
    116e:	a0 00       	.word	0x00a0	; ????
    1170:	a0 08       	sbc	r10, r0
    1172:	a0 04       	cpc	r10, r0
    1174:	a0 0c       	add	r10, r0
    1176:	a0 02       	muls	r26, r16
    1178:	a0 0a       	sbc	r10, r16
    117a:	a0 06       	cpc	r10, r16
    117c:	a0 0e       	add	r10, r16
    117e:	a0 01       	movw	r20, r0
    1180:	a0 09       	sbc	r26, r0
    1182:	a0 05       	cpc	r26, r0
    1184:	a0 0d       	add	r26, r0
    1186:	a0 03       	fmuls	r18, r16
    1188:	a0 0b       	sbc	r26, r16
    118a:	a0 07       	cpc	r26, r16
    118c:	a0 0f       	add	r26, r16
    118e:	60 00       	.word	0x0060	; ????
    1190:	60 08       	sbc	r6, r0
    1192:	60 04       	cpc	r6, r0
    1194:	60 0c       	add	r6, r0
    1196:	60 02       	muls	r22, r16
    1198:	60 0a       	sbc	r6, r16
    119a:	60 06       	cpc	r6, r16
    119c:	60 0e       	add	r6, r16
    119e:	60 01       	movw	r12, r0
    11a0:	60 09       	sbc	r22, r0
    11a2:	60 05       	cpc	r22, r0
    11a4:	60 0d       	add	r22, r0
    11a6:	60 03       	mulsu	r22, r16
    11a8:	60 0b       	sbc	r22, r16
    11aa:	60 07       	cpc	r22, r16
    11ac:	60 0f       	add	r22, r16
    11ae:	e0 00       	.word	0x00e0	; ????
    11b0:	e0 08       	sbc	r14, r0
    11b2:	e0 04       	cpc	r14, r0
    11b4:	e0 0c       	add	r14, r0
    11b6:	e0 02       	muls	r30, r16
    11b8:	e0 0a       	sbc	r14, r16
    11ba:	e0 06       	cpc	r14, r16
    11bc:	e0 0e       	add	r14, r16
    11be:	e0 01       	movw	r28, r0
    11c0:	e0 09       	sbc	r30, r0
    11c2:	e0 05       	cpc	r30, r0
    11c4:	e0 0d       	add	r30, r0
    11c6:	e0 03       	fmuls	r22, r16
    11c8:	e0 0b       	sbc	r30, r16
    11ca:	e0 07       	cpc	r30, r16
    11cc:	e0 0f       	add	r30, r16
    11ce:	10 00       	.word	0x0010	; ????
    11d0:	10 08       	sbc	r1, r0
    11d2:	10 04       	cpc	r1, r0
    11d4:	10 0c       	add	r1, r0
    11d6:	10 02       	muls	r17, r16
    11d8:	10 0a       	sbc	r1, r16
    11da:	10 06       	cpc	r1, r16
    11dc:	10 0e       	add	r1, r16
    11de:	10 01       	movw	r2, r0
    11e0:	10 09       	sbc	r17, r0
    11e2:	10 05       	cpc	r17, r0
    11e4:	10 0d       	add	r17, r0
    11e6:	10 03       	mulsu	r17, r16
    11e8:	10 0b       	sbc	r17, r16
    11ea:	10 07       	cpc	r17, r16
    11ec:	10 0f       	add	r17, r16
    11ee:	90 00       	.word	0x0090	; ????
    11f0:	90 08       	sbc	r9, r0
    11f2:	90 04       	cpc	r9, r0
    11f4:	90 0c       	add	r9, r0
    11f6:	90 02       	muls	r25, r16
    11f8:	90 0a       	sbc	r9, r16
    11fa:	90 06       	cpc	r9, r16
    11fc:	90 0e       	add	r9, r16
    11fe:	90 01       	movw	r18, r0
    1200:	90 09       	sbc	r25, r0
    1202:	90 05       	cpc	r25, r0
    1204:	90 0d       	add	r25, r0
    1206:	90 03       	fmuls	r17, r16
    1208:	90 0b       	sbc	r25, r16
    120a:	90 07       	cpc	r25, r16
    120c:	90 0f       	add	r25, r16
    120e:	50 00       	.word	0x0050	; ????
    1210:	50 08       	sbc	r5, r0
    1212:	50 04       	cpc	r5, r0
    1214:	50 0c       	add	r5, r0
    1216:	50 02       	muls	r21, r16
    1218:	50 0a       	sbc	r5, r16
    121a:	50 06       	cpc	r5, r16
    121c:	50 0e       	add	r5, r16
    121e:	50 01       	movw	r10, r0
    1220:	50 09       	sbc	r21, r0
    1222:	50 05       	cpc	r21, r0
    1224:	50 0d       	add	r21, r0
    1226:	50 03       	mulsu	r21, r16
    1228:	50 0b       	sbc	r21, r16
    122a:	50 07       	cpc	r21, r16
    122c:	50 0f       	add	r21, r16
    122e:	d0 00       	.word	0x00d0	; ????
    1230:	d0 08       	sbc	r13, r0
    1232:	d0 04       	cpc	r13, r0
    1234:	d0 0c       	add	r13, r0
    1236:	d0 02       	muls	r29, r16
    1238:	d0 0a       	sbc	r13, r16
    123a:	d0 06       	cpc	r13, r16
    123c:	d0 0e       	add	r13, r16
    123e:	d0 01       	movw	r26, r0
    1240:	d0 09       	sbc	r29, r0
    1242:	d0 05       	cpc	r29, r0
    1244:	d0 0d       	add	r29, r0
    1246:	d0 03       	fmuls	r21, r16
    1248:	d0 0b       	sbc	r29, r16
    124a:	d0 07       	cpc	r29, r16
    124c:	d0 0f       	add	r29, r16
    124e:	30 00       	.word	0x0030	; ????
    1250:	30 08       	sbc	r3, r0
    1252:	30 04       	cpc	r3, r0
    1254:	30 0c       	add	r3, r0
    1256:	30 02       	muls	r19, r16
    1258:	30 0a       	sbc	r3, r16
    125a:	30 06       	cpc	r3, r16
    125c:	30 0e       	add	r3, r16
    125e:	30 01       	movw	r6, r0
    1260:	30 09       	sbc	r19, r0
    1262:	30 05       	cpc	r19, r0
    1264:	30 0d       	add	r19, r0
    1266:	30 03       	mulsu	r19, r16
    1268:	30 0b       	sbc	r19, r16
    126a:	30 07       	cpc	r19, r16
    126c:	30 0f       	add	r19, r16
    126e:	b0 00       	.word	0x00b0	; ????
    1270:	b0 08       	sbc	r11, r0
    1272:	b0 04       	cpc	r11, r0
    1274:	b0 0c       	add	r11, r0
    1276:	b0 02       	muls	r27, r16
    1278:	b0 0a       	sbc	r11, r16
    127a:	b0 06       	cpc	r11, r16
    127c:	b0 0e       	add	r11, r16
    127e:	b0 01       	movw	r22, r0
    1280:	b0 09       	sbc	r27, r0
    1282:	b0 05       	cpc	r27, r0
    1284:	b0 0d       	add	r27, r0
    1286:	b0 03       	fmuls	r19, r16
    1288:	b0 0b       	sbc	r27, r16
    128a:	b0 07       	cpc	r27, r16
    128c:	b0 0f       	add	r27, r16
    128e:	70 00       	.word	0x0070	; ????
    1290:	70 08       	sbc	r7, r0
    1292:	70 04       	cpc	r7, r0
    1294:	70 0c       	add	r7, r0
    1296:	70 02       	muls	r23, r16
    1298:	70 0a       	sbc	r7, r16
    129a:	70 06       	cpc	r7, r16
    129c:	70 0e       	add	r7, r16
    129e:	70 01       	movw	r14, r0
    12a0:	70 09       	sbc	r23, r0
    12a2:	70 05       	cpc	r23, r0
    12a4:	70 0d       	add	r23, r0
    12a6:	70 03       	mulsu	r23, r16
    12a8:	70 0b       	sbc	r23, r16
    12aa:	70 07       	cpc	r23, r16
    12ac:	70 0f       	add	r23, r16
    12ae:	f0 00       	.word	0x00f0	; ????
    12b0:	f0 08       	sbc	r15, r0
    12b2:	f0 04       	cpc	r15, r0
    12b4:	f0 0c       	add	r15, r0
    12b6:	f0 02       	muls	r31, r16
    12b8:	f0 0a       	sbc	r15, r16
    12ba:	f0 06       	cpc	r15, r16
    12bc:	f0 0e       	add	r15, r16
    12be:	f0 01       	movw	r30, r0
    12c0:	f0 09       	sbc	r31, r0
    12c2:	f0 05       	cpc	r31, r0
    12c4:	f0 0d       	add	r31, r0
    12c6:	f0 03       	fmuls	r23, r16
    12c8:	f0 0b       	sbc	r31, r16
    12ca:	f0 07       	cpc	r31, r16
    12cc:	f0 0f       	add	r31, r16
    12ce:	08 00       	.word	0x0008	; ????
    12d0:	08 08       	sbc	r0, r8
    12d2:	08 04       	cpc	r0, r8
    12d4:	08 0c       	add	r0, r8
    12d6:	08 02       	muls	r16, r24
    12d8:	08 0a       	sbc	r0, r24
    12da:	08 06       	cpc	r0, r24
    12dc:	08 0e       	add	r0, r24
    12de:	08 01       	movw	r0, r16
    12e0:	08 09       	sbc	r16, r8
    12e2:	08 05       	cpc	r16, r8
    12e4:	08 0d       	add	r16, r8
    12e6:	08 03       	fmul	r16, r16
    12e8:	08 0b       	sbc	r16, r24
    12ea:	08 07       	cpc	r16, r24
    12ec:	08 0f       	add	r16, r24
    12ee:	88 00       	.word	0x0088	; ????
    12f0:	88 08       	sbc	r8, r8
    12f2:	88 04       	cpc	r8, r8
    12f4:	88 0c       	add	r8, r8
    12f6:	88 02       	muls	r24, r24
    12f8:	88 0a       	sbc	r8, r24
    12fa:	88 06       	cpc	r8, r24
    12fc:	88 0e       	add	r8, r24
    12fe:	88 01       	movw	r16, r16
    1300:	88 09       	sbc	r24, r8
    1302:	88 05       	cpc	r24, r8
    1304:	88 0d       	add	r24, r8
    1306:	88 03       	fmulsu	r16, r16
    1308:	88 0b       	sbc	r24, r24
    130a:	88 07       	cpc	r24, r24
    130c:	88 0f       	add	r24, r24
    130e:	48 00       	.word	0x0048	; ????
    1310:	48 08       	sbc	r4, r8
    1312:	48 04       	cpc	r4, r8
    1314:	48 0c       	add	r4, r8
    1316:	48 02       	muls	r20, r24
    1318:	48 0a       	sbc	r4, r24
    131a:	48 06       	cpc	r4, r24
    131c:	48 0e       	add	r4, r24
    131e:	48 01       	movw	r8, r16
    1320:	48 09       	sbc	r20, r8
    1322:	48 05       	cpc	r20, r8
    1324:	48 0d       	add	r20, r8
    1326:	48 03       	fmul	r20, r16
    1328:	48 0b       	sbc	r20, r24
    132a:	48 07       	cpc	r20, r24
    132c:	48 0f       	add	r20, r24
    132e:	c8 00       	.word	0x00c8	; ????
    1330:	c8 08       	sbc	r12, r8
    1332:	c8 04       	cpc	r12, r8
    1334:	c8 0c       	add	r12, r8
    1336:	c8 02       	muls	r28, r24
    1338:	c8 0a       	sbc	r12, r24
    133a:	c8 06       	cpc	r12, r24
    133c:	c8 0e       	add	r12, r24
    133e:	c8 01       	movw	r24, r16
    1340:	c8 09       	sbc	r28, r8
    1342:	c8 05       	cpc	r28, r8
    1344:	c8 0d       	add	r28, r8
    1346:	c8 03       	fmulsu	r20, r16
    1348:	c8 0b       	sbc	r28, r24
    134a:	c8 07       	cpc	r28, r24
    134c:	c8 0f       	add	r28, r24
    134e:	28 00       	.word	0x0028	; ????
    1350:	28 08       	sbc	r2, r8
    1352:	28 04       	cpc	r2, r8
    1354:	28 0c       	add	r2, r8
    1356:	28 02       	muls	r18, r24
    1358:	28 0a       	sbc	r2, r24
    135a:	28 06       	cpc	r2, r24
    135c:	28 0e       	add	r2, r24
    135e:	28 01       	movw	r4, r16
    1360:	28 09       	sbc	r18, r8
    1362:	28 05       	cpc	r18, r8
    1364:	28 0d       	add	r18, r8
    1366:	28 03       	fmul	r18, r16
    1368:	28 0b       	sbc	r18, r24
    136a:	28 07       	cpc	r18, r24
    136c:	28 0f       	add	r18, r24
    136e:	a8 00       	.word	0x00a8	; ????
    1370:	a8 08       	sbc	r10, r8
    1372:	a8 04       	cpc	r10, r8
    1374:	a8 0c       	add	r10, r8
    1376:	a8 02       	muls	r26, r24
    1378:	a8 0a       	sbc	r10, r24
    137a:	a8 06       	cpc	r10, r24
    137c:	a8 0e       	add	r10, r24
    137e:	a8 01       	movw	r20, r16
    1380:	a8 09       	sbc	r26, r8
    1382:	a8 05       	cpc	r26, r8
    1384:	a8 0d       	add	r26, r8
    1386:	a8 03       	fmulsu	r18, r16
    1388:	a8 0b       	sbc	r26, r24
    138a:	a8 07       	cpc	r26, r24
    138c:	a8 0f       	add	r26, r24
    138e:	68 00       	.word	0x0068	; ????
    1390:	68 08       	sbc	r6, r8
    1392:	68 04       	cpc	r6, r8
    1394:	68 0c       	add	r6, r8
    1396:	68 02       	muls	r22, r24
    1398:	68 0a       	sbc	r6, r24
    139a:	68 06       	cpc	r6, r24
    139c:	68 0e       	add	r6, r24
    139e:	68 01       	movw	r12, r16
    13a0:	68 09       	sbc	r22, r8
    13a2:	68 05       	cpc	r22, r8
    13a4:	68 0d       	add	r22, r8
    13a6:	68 03       	fmul	r22, r16
    13a8:	68 0b       	sbc	r22, r24
    13aa:	68 07       	cpc	r22, r24
    13ac:	68 0f       	add	r22, r24
    13ae:	e8 00       	.word	0x00e8	; ????
    13b0:	e8 08       	sbc	r14, r8
    13b2:	e8 04       	cpc	r14, r8
    13b4:	e8 0c       	add	r14, r8
    13b6:	e8 02       	muls	r30, r24
    13b8:	e8 0a       	sbc	r14, r24
    13ba:	e8 06       	cpc	r14, r24
    13bc:	e8 0e       	add	r14, r24
    13be:	e8 01       	movw	r28, r16
    13c0:	e8 09       	sbc	r30, r8
    13c2:	e8 05       	cpc	r30, r8
    13c4:	e8 0d       	add	r30, r8
    13c6:	e8 03       	fmulsu	r22, r16
    13c8:	e8 0b       	sbc	r30, r24
    13ca:	e8 07       	cpc	r30, r24
    13cc:	e8 0f       	add	r30, r24
    13ce:	18 00       	.word	0x0018	; ????
    13d0:	18 08       	sbc	r1, r8
    13d2:	18 04       	cpc	r1, r8
    13d4:	18 0c       	add	r1, r8
    13d6:	18 02       	muls	r17, r24
    13d8:	18 0a       	sbc	r1, r24
    13da:	18 06       	cpc	r1, r24
    13dc:	18 0e       	add	r1, r24
    13de:	18 01       	movw	r2, r16
    13e0:	18 09       	sbc	r17, r8
    13e2:	18 05       	cpc	r17, r8
    13e4:	18 0d       	add	r17, r8
    13e6:	18 03       	fmul	r17, r16
    13e8:	18 0b       	sbc	r17, r24
    13ea:	18 07       	cpc	r17, r24
    13ec:	18 0f       	add	r17, r24
    13ee:	98 00       	.word	0x0098	; ????
    13f0:	98 08       	sbc	r9, r8
    13f2:	98 04       	cpc	r9, r8
    13f4:	98 0c       	add	r9, r8
    13f6:	98 02       	muls	r25, r24
    13f8:	98 0a       	sbc	r9, r24
    13fa:	98 06       	cpc	r9, r24
    13fc:	98 0e       	add	r9, r24
    13fe:	98 01       	movw	r18, r16
    1400:	98 09       	sbc	r25, r8
    1402:	98 05       	cpc	r25, r8
    1404:	98 0d       	add	r25, r8
    1406:	98 03       	fmulsu	r17, r16
    1408:	98 0b       	sbc	r25, r24
    140a:	98 07       	cpc	r25, r24
    140c:	98 0f       	add	r25, r24
    140e:	58 00       	.word	0x0058	; ????
    1410:	58 08       	sbc	r5, r8
    1412:	58 04       	cpc	r5, r8
    1414:	58 0c       	add	r5, r8
    1416:	58 02       	muls	r21, r24
    1418:	58 0a       	sbc	r5, r24
    141a:	58 06       	cpc	r5, r24
    141c:	58 0e       	add	r5, r24
    141e:	58 01       	movw	r10, r16
    1420:	58 09       	sbc	r21, r8
    1422:	58 05       	cpc	r21, r8
    1424:	58 0d       	add	r21, r8
    1426:	58 03       	fmul	r21, r16
    1428:	58 0b       	sbc	r21, r24
    142a:	58 07       	cpc	r21, r24
    142c:	58 0f       	add	r21, r24
    142e:	d8 00       	.word	0x00d8	; ????
    1430:	d8 08       	sbc	r13, r8
    1432:	d8 04       	cpc	r13, r8
    1434:	d8 0c       	add	r13, r8
    1436:	d8 02       	muls	r29, r24
    1438:	d8 0a       	sbc	r13, r24
    143a:	d8 06       	cpc	r13, r24
    143c:	d8 0e       	add	r13, r24
    143e:	d8 01       	movw	r26, r16
    1440:	d8 09       	sbc	r29, r8
    1442:	d8 05       	cpc	r29, r8
    1444:	d8 0d       	add	r29, r8
    1446:	d8 03       	fmulsu	r21, r16
    1448:	d8 0b       	sbc	r29, r24
    144a:	d8 07       	cpc	r29, r24
    144c:	d8 0f       	add	r29, r24
    144e:	38 00       	.word	0x0038	; ????
    1450:	38 08       	sbc	r3, r8
    1452:	38 04       	cpc	r3, r8
    1454:	38 0c       	add	r3, r8
    1456:	38 02       	muls	r19, r24
    1458:	38 0a       	sbc	r3, r24
    145a:	38 06       	cpc	r3, r24
    145c:	38 0e       	add	r3, r24
    145e:	38 01       	movw	r6, r16
    1460:	38 09       	sbc	r19, r8
    1462:	38 05       	cpc	r19, r8
    1464:	38 0d       	add	r19, r8
    1466:	38 03       	fmul	r19, r16
    1468:	38 0b       	sbc	r19, r24
    146a:	38 07       	cpc	r19, r24
    146c:	38 0f       	add	r19, r24
    146e:	b8 00       	.word	0x00b8	; ????
    1470:	b8 08       	sbc	r11, r8
    1472:	b8 04       	cpc	r11, r8
    1474:	b8 0c       	add	r11, r8
    1476:	b8 02       	muls	r27, r24
    1478:	b8 0a       	sbc	r11, r24
    147a:	b8 06       	cpc	r11, r24
    147c:	b8 0e       	add	r11, r24
    147e:	b8 01       	movw	r22, r16
    1480:	b8 09       	sbc	r27, r8
    1482:	b8 05       	cpc	r27, r8
    1484:	b8 0d       	add	r27, r8
    1486:	b8 03       	fmulsu	r19, r16
    1488:	b8 0b       	sbc	r27, r24
    148a:	b8 07       	cpc	r27, r24
    148c:	b8 0f       	add	r27, r24
    148e:	78 00       	.word	0x0078	; ????
    1490:	78 08       	sbc	r7, r8
    1492:	78 04       	cpc	r7, r8
    1494:	78 0c       	add	r7, r8
    1496:	78 02       	muls	r23, r24
    1498:	78 0a       	sbc	r7, r24
    149a:	78 06       	cpc	r7, r24
    149c:	78 0e       	add	r7, r24
    149e:	78 01       	movw	r14, r16
    14a0:	78 09       	sbc	r23, r8
    14a2:	78 05       	cpc	r23, r8
    14a4:	78 0d       	add	r23, r8
    14a6:	78 03       	fmul	r23, r16
    14a8:	78 0b       	sbc	r23, r24
    14aa:	78 07       	cpc	r23, r24
    14ac:	78 0f       	add	r23, r24
    14ae:	f8 00       	.word	0x00f8	; ????
    14b0:	f8 08       	sbc	r15, r8
    14b2:	f8 04       	cpc	r15, r8
    14b4:	f8 0c       	add	r15, r8
    14b6:	f8 02       	muls	r31, r24
    14b8:	f8 0a       	sbc	r15, r24
    14ba:	f8 06       	cpc	r15, r24
    14bc:	f8 0e       	add	r15, r24
    14be:	f8 01       	movw	r30, r16
    14c0:	f8 09       	sbc	r31, r8
    14c2:	f8 05       	cpc	r31, r8
    14c4:	f8 0d       	add	r31, r8
    14c6:	f8 03       	fmulsu	r23, r16
    14c8:	f8 0b       	sbc	r31, r24
    14ca:	f8 07       	cpc	r31, r24
    14cc:	f8 0f       	add	r31, r24

000014ce <fft_input_1024>:
;----------------------------------------------------------------------------;
#ifndef INPUT_NOISE
.global fft_input_1024
.func fft_input_1024
fft_input_1024:
	pushw	T2H,T2L
    14ce:	3f 92       	push	r3
    14d0:	2f 92       	push	r2
	pushw	AH,AL
    14d2:	1f 93       	push	r17
    14d4:	0f 93       	push	r16
	pushw	YH,YL
    14d6:	df 93       	push	r29
    14d8:	cf 93       	push	r28

	movw	XL, EL				;X = array_src;
    14da:	dc 01       	movw	r26, r24
	movw	YL, DL				;Y = array_bfly;
    14dc:	eb 01       	movw	r28, r22
	clr	EH				;Zero
    14de:	99 27       	eor	r25, r25
	ldiw	ZH,ZL, tbl_window_1024		;Z = &tbl_window[0];
    14e0:	ee ec       	ldi	r30, 0xCE	; 206
    14e2:	f0 e0       	ldi	r31, 0x00	; 0
	ldiw	AH,AL, FFT_N_1024			;A = FFT_N;
    14e4:	00 e0       	ldi	r16, 0x00	; 0
    14e6:	14 e0       	ldi	r17, 0x04	; 4
1:	lpmw	BH,BL, Z+			;B = *Z++; (window)
    14e8:	25 91       	lpm	r18, Z+
    14ea:	35 91       	lpm	r19, Z+
	ldw	CH,CL, X+			;C = *X++; (I-axis)
    14ec:	4d 91       	ld	r20, X+
    14ee:	5d 91       	ld	r21, X+
	FMULS16	DH,DL,T2H,T2L, BH,BL, CH,CL	;D = B * C;
    14f0:	b5 03       	fmuls	r19, r21
    14f2:	b0 01       	movw	r22, r0
    14f4:	2c 03       	fmul	r18, r20
    14f6:	10 01       	movw	r2, r0
    14f8:	69 1f       	adc	r22, r25
    14fa:	bc 03       	fmulsu	r19, r20
    14fc:	79 0b       	sbc	r23, r25
    14fe:	30 0c       	add	r3, r0
    1500:	61 1d       	adc	r22, r1
    1502:	79 1f       	adc	r23, r25
    1504:	da 03       	fmulsu	r21, r18
    1506:	79 0b       	sbc	r23, r25
    1508:	30 0c       	add	r3, r0
    150a:	61 1d       	adc	r22, r1
    150c:	79 1f       	adc	r23, r25
	stw	Y+, DH,DL			;*Y++ = D;
    150e:	69 93       	st	Y+, r22
    1510:	79 93       	st	Y+, r23
#ifdef INPUT_IQ
	ldw	CH,CL, X+			;C = *X++; (Q-axis)
	FMULS16	DH,DL,T2H,T2L, BH,BL, CH,CL	;D = B * C;
#endif
	stw	Y+, DH,DL			;*Y++ = D;
    1512:	69 93       	st	Y+, r22
    1514:	79 93       	st	Y+, r23
	subiw	AH,AL, 1			;while(--A)
    1516:	01 50       	subi	r16, 0x01	; 1
    1518:	10 40       	sbci	r17, 0x00	; 0
	brne	1b				;/
    151a:	31 f7       	brne	.-52     	; 0x14e8 <fft_input_1024+0x1a>

	popw	YH,YL
    151c:	cf 91       	pop	r28
    151e:	df 91       	pop	r29
	popw	AH,AL
    1520:	0f 91       	pop	r16
    1522:	1f 91       	pop	r17
	popw	T2H,T2L
    1524:	2f 90       	pop	r2
    1526:	3f 90       	pop	r3
	clr	r1
    1528:	11 24       	eor	r1, r1
	ret
    152a:	08 95       	ret

0000152c <fft_execute_1024>:

;----------------------------------------------------------------------------;
.global fft_execute_1024
.func fft_execute_1024
fft_execute_1024:
	pushw	T2H,T2L
    152c:	3f 92       	push	r3
    152e:	2f 92       	push	r2
	pushw	T4H,T4L
    1530:	5f 92       	push	r5
    1532:	4f 92       	push	r4
	pushw	T6H,T6L
    1534:	7f 92       	push	r7
    1536:	6f 92       	push	r6
	pushw	T8H,T8L
    1538:	9f 92       	push	r9
    153a:	8f 92       	push	r8
	pushw	T10H,T10L
    153c:	bf 92       	push	r11
    153e:	af 92       	push	r10
	pushw	T12H,T12L
    1540:	df 92       	push	r13
    1542:	cf 92       	push	r12
	pushw	T14H,T14L
    1544:	ff 92       	push	r15
    1546:	ef 92       	push	r14
	pushw	AH,AL
    1548:	1f 93       	push	r17
    154a:	0f 93       	push	r16
	pushw	YH,YL
    154c:	df 93       	push	r29
    154e:	cf 93       	push	r28

	movw	ZL, EL				;Z = array_bfly;
    1550:	fc 01       	movw	r30, r24
	ldiw	EH,EL, 1			;E = 1;
    1552:	81 e0       	ldi	r24, 0x01	; 1
    1554:	90 e0       	ldi	r25, 0x00	; 0
	ldiw	XH,XL, FFT_N_1024/2			;X = FFT_N/2;
    1556:	a0 e0       	ldi	r26, 0x00	; 0
    1558:	b2 e0       	ldi	r27, 0x02	; 2
1:	ldi	AL, 4				;T12 = E; (angular speed)
    155a:	04 e0       	ldi	r16, 0x04	; 4
	mul	EL, AL				;
    155c:	80 9f       	mul	r24, r16
	movw	T12L, T0L			;
    155e:	60 01       	movw	r12, r0
	mul	EH, AL				;
    1560:	90 9f       	mul	r25, r16
	add	T12H, T0L			;/
    1562:	d0 0c       	add	r13, r0
	movw	T14L, EL			;T14 = E;
    1564:	7c 01       	movw	r14, r24
	pushw	EH,EL
    1566:	9f 93       	push	r25
    1568:	8f 93       	push	r24
	movw	YL, ZL				;Z = &array_bfly[0];
    156a:	ef 01       	movw	r28, r30
	mul	XL, AL				;Y = &array_bfly[X];
    156c:	a0 9f       	mul	r26, r16
	addw	YH,YL, T0H,T0L			;
    156e:	c0 0d       	add	r28, r0
    1570:	d1 1d       	adc	r29, r1
	mul	XH, AL				;
    1572:	b0 9f       	mul	r27, r16
	add	YH, T0L				;/
    1574:	d0 0d       	add	r29, r0
	pushw	ZH,ZL
    1576:	ff 93       	push	r31
    1578:	ef 93       	push	r30
2:	clrw	T10H,T10L			;T10 = 0 (angle)
    157a:	bb 24       	eor	r11, r11
    157c:	aa 24       	eor	r10, r10
	clr	EH				;Zero reg.
    157e:	99 27       	eor	r25, r25
3:	lddw	AH,AL, Z+0			;A = *Z - *Y; *Z++ += *Y;
    1580:	00 81       	ld	r16, Z
    1582:	11 81       	ldd	r17, Z+1	; 0x01
	asrw	AH,AL				;
    1584:	15 95       	asr	r17
    1586:	07 95       	ror	r16
	lddw	DH,DL, Y+0			;
    1588:	68 81       	ld	r22, Y
    158a:	79 81       	ldd	r23, Y+1	; 0x01
	asrw	DH,DL				;
    158c:	75 95       	asr	r23
    158e:	67 95       	ror	r22
	movw	CL, AL				;
    1590:	a8 01       	movw	r20, r16
	subw	AH,AL, DH,DL			;
    1592:	06 1b       	sub	r16, r22
    1594:	17 0b       	sbc	r17, r23
	addw	CH,CL, DH,DL			;
    1596:	46 0f       	add	r20, r22
    1598:	57 1f       	adc	r21, r23
	stw	Z+, CH,CL			;/
    159a:	41 93       	st	Z+, r20
    159c:	51 93       	st	Z+, r21
	lddw	BH,BL, Z+0			;B = *Z - *Y; *Z++ += *Y;
    159e:	20 81       	ld	r18, Z
    15a0:	31 81       	ldd	r19, Z+1	; 0x01
	asrw	BH,BL				;
    15a2:	35 95       	asr	r19
    15a4:	27 95       	ror	r18
	lddw	DH,DL, Y+2			;
    15a6:	6a 81       	ldd	r22, Y+2	; 0x02
    15a8:	7b 81       	ldd	r23, Y+3	; 0x03
	asrw	DH,DL				;
    15aa:	75 95       	asr	r23
    15ac:	67 95       	ror	r22
	movw	CL, BL				;
    15ae:	a9 01       	movw	r20, r18
	subw	BH,BL, DH,DL			;
    15b0:	26 1b       	sub	r18, r22
    15b2:	37 0b       	sbc	r19, r23
	addw	CH,CL, DH,DL			;
    15b4:	46 0f       	add	r20, r22
    15b6:	57 1f       	adc	r21, r23
	stw	Z+, CH,CL			;/
    15b8:	41 93       	st	Z+, r20
    15ba:	51 93       	st	Z+, r21
	movw	T0L, ZL
    15bc:	0f 01       	movw	r0, r30
	ldiw	ZH,ZL, tbl_cos_sin		;C = cos(T10); D = sin(T10);
    15be:	ee ec       	ldi	r30, 0xCE	; 206
    15c0:	f8 e0       	ldi	r31, 0x08	; 8
	addw	ZH,ZL, T10H,T10L		;
    15c2:	ea 0d       	add	r30, r10
    15c4:	fb 1d       	adc	r31, r11
	lpmw	CH,CL, Z+			;
    15c6:	45 91       	lpm	r20, Z+
    15c8:	55 91       	lpm	r21, Z+
	lpmw	DH,DL, Z+			;/
    15ca:	65 91       	lpm	r22, Z+
    15cc:	75 91       	lpm	r23, Z+
	movw	ZL, T0L
    15ce:	f0 01       	movw	r30, r0
	FMULS16	T4H,T4L,T2H,T2L, AH,AL, CH,CL	;*Y++ = A * C + B * D;
    15d0:	95 03       	fmuls	r17, r21
    15d2:	20 01       	movw	r4, r0
    15d4:	0c 03       	fmul	r16, r20
    15d6:	10 01       	movw	r2, r0
    15d8:	49 1e       	adc	r4, r25
    15da:	9c 03       	fmulsu	r17, r20
    15dc:	59 0a       	sbc	r5, r25
    15de:	30 0c       	add	r3, r0
    15e0:	41 1c       	adc	r4, r1
    15e2:	59 1e       	adc	r5, r25
    15e4:	d8 03       	fmulsu	r21, r16
    15e6:	59 0a       	sbc	r5, r25
    15e8:	30 0c       	add	r3, r0
    15ea:	41 1c       	adc	r4, r1
    15ec:	59 1e       	adc	r5, r25
	FMULS16	T8H,T8L,T6H,T6L, BH,BL, DH,DL	;
    15ee:	b7 03       	fmuls	r19, r23
    15f0:	40 01       	movw	r8, r0
    15f2:	2e 03       	fmul	r18, r22
    15f4:	30 01       	movw	r6, r0
    15f6:	89 1e       	adc	r8, r25
    15f8:	be 03       	fmulsu	r19, r22
    15fa:	99 0a       	sbc	r9, r25
    15fc:	70 0c       	add	r7, r0
    15fe:	81 1c       	adc	r8, r1
    1600:	99 1e       	adc	r9, r25
    1602:	fa 03       	fmulsu	r23, r18
    1604:	99 0a       	sbc	r9, r25
    1606:	70 0c       	add	r7, r0
    1608:	81 1c       	adc	r8, r1
    160a:	99 1e       	adc	r9, r25
	addd	T4H,T4L,T2H,T2L, T8H,T8L,T6H,T6L;
    160c:	26 0c       	add	r2, r6
    160e:	37 1c       	adc	r3, r7
    1610:	48 1c       	adc	r4, r8
    1612:	59 1c       	adc	r5, r9
	stw	Y+, T4H,T4L			;/
    1614:	49 92       	st	Y+, r4
    1616:	59 92       	st	Y+, r5
	FMULS16	T4H,T4L,T2H,T2L, BH,BL, CH,CL 	;*Y++ = B * C - A * D;
    1618:	b5 03       	fmuls	r19, r21
    161a:	20 01       	movw	r4, r0
    161c:	2c 03       	fmul	r18, r20
    161e:	10 01       	movw	r2, r0
    1620:	49 1e       	adc	r4, r25
    1622:	bc 03       	fmulsu	r19, r20
    1624:	59 0a       	sbc	r5, r25
    1626:	30 0c       	add	r3, r0
    1628:	41 1c       	adc	r4, r1
    162a:	59 1e       	adc	r5, r25
    162c:	da 03       	fmulsu	r21, r18
    162e:	59 0a       	sbc	r5, r25
    1630:	30 0c       	add	r3, r0
    1632:	41 1c       	adc	r4, r1
    1634:	59 1e       	adc	r5, r25
	FMULS16	T8H,T8L,T6H,T6L, AH,AL, DH,DL 	;
    1636:	97 03       	fmuls	r17, r23
    1638:	40 01       	movw	r8, r0
    163a:	0e 03       	fmul	r16, r22
    163c:	30 01       	movw	r6, r0
    163e:	89 1e       	adc	r8, r25
    1640:	9e 03       	fmulsu	r17, r22
    1642:	99 0a       	sbc	r9, r25
    1644:	70 0c       	add	r7, r0
    1646:	81 1c       	adc	r8, r1
    1648:	99 1e       	adc	r9, r25
    164a:	f8 03       	fmulsu	r23, r16
    164c:	99 0a       	sbc	r9, r25
    164e:	70 0c       	add	r7, r0
    1650:	81 1c       	adc	r8, r1
    1652:	99 1e       	adc	r9, r25
	subd	T4H,T4L,T2H,T2L, T8H,T8L,T6H,T6L;
    1654:	26 18       	sub	r2, r6
    1656:	37 08       	sbc	r3, r7
    1658:	48 08       	sbc	r4, r8
    165a:	59 08       	sbc	r5, r9
	stw	Y+, T4H,T4L			;/
    165c:	49 92       	st	Y+, r4
    165e:	59 92       	st	Y+, r5
	addw	T10H,T10L, T12H,T12L		;T10 += T12; (next angle)
    1660:	ac 0c       	add	r10, r12
    1662:	bd 1c       	adc	r11, r13
#if FFT_N_1024 >= 128
	sbrs	T10H, FFT_B_1024 - 7			;while(T10 < pi)
    1664:	b3 fe       	sbrs	r11, 3
#else
	sbrs	T10L, FFT_B_1024 + 1
#endif
	rjmp	3b				;/
    1666:	8c cf       	rjmp	.-232    	; 0x1580 <fft_execute_1024+0x54>
	ldi	AL, 4				;Y += X; Z += X; (skip split segment)
    1668:	04 e0       	ldi	r16, 0x04	; 4
	mul	XL, AL
    166a:	a0 9f       	mul	r26, r16
	addw	YH,YL, T0H,T0L			;
    166c:	c0 0d       	add	r28, r0
    166e:	d1 1d       	adc	r29, r1
	addw	ZH,ZL, T0H,T0L			;
    1670:	e0 0d       	add	r30, r0
    1672:	f1 1d       	adc	r31, r1
	mul	XH, AL				;
    1674:	b0 9f       	mul	r27, r16
	add	YH, T0L				;
    1676:	d0 0d       	add	r29, r0
	add	ZH, T0L				;/
    1678:	f0 0d       	add	r31, r0
	ldi	EL, 1				;while(--T14)
    167a:	81 e0       	ldi	r24, 0x01	; 1
	subw	T14H,T14L, EH,EL		;
    167c:	e8 1a       	sub	r14, r24
    167e:	f9 0a       	sbc	r15, r25
	rjne	2b				;/
    1680:	09 f0       	breq	.+2      	; 0x1684 <fft_execute_1024+0x158>
    1682:	7b cf       	rjmp	.-266    	; 0x157a <fft_execute_1024+0x4e>
	popw	ZH,ZL
    1684:	ef 91       	pop	r30
    1686:	ff 91       	pop	r31
	popw	EH,EL
    1688:	8f 91       	pop	r24
    168a:	9f 91       	pop	r25
	lslw	EH,EL				;E *= 2;
    168c:	88 0f       	add	r24, r24
    168e:	99 1f       	adc	r25, r25
	lsrw	XH,XL				;while(X /= 2)
    1690:	b6 95       	lsr	r27
    1692:	a7 95       	ror	r26
	adiw	XL, 0				;
    1694:	10 96       	adiw	r26, 0x00	; 0
	rjne	1b				;/
    1696:	09 f0       	breq	.+2      	; 0x169a <fft_execute_1024+0x16e>
    1698:	60 cf       	rjmp	.-320    	; 0x155a <fft_execute_1024+0x2e>

	popw	YH,YL
    169a:	cf 91       	pop	r28
    169c:	df 91       	pop	r29
	popw	AH,AL
    169e:	0f 91       	pop	r16
    16a0:	1f 91       	pop	r17
	popw	T14H,T14L
    16a2:	ef 90       	pop	r14
    16a4:	ff 90       	pop	r15
	popw	T12H,T12L
    16a6:	cf 90       	pop	r12
    16a8:	df 90       	pop	r13
	popw	T10H,T10L
    16aa:	af 90       	pop	r10
    16ac:	bf 90       	pop	r11
	popw	T8H,T8L
    16ae:	8f 90       	pop	r8
    16b0:	9f 90       	pop	r9
	popw	T6H,T6L
    16b2:	6f 90       	pop	r6
    16b4:	7f 90       	pop	r7
	popw	T4H,T4L
    16b6:	4f 90       	pop	r4
    16b8:	5f 90       	pop	r5
	popw	T2H,T2L
    16ba:	2f 90       	pop	r2
    16bc:	3f 90       	pop	r3
;	clr	r1
	ret
    16be:	08 95       	ret

000016c0 <fft_output_1024>:

;----------------------------------------------------------------------------;
.global fft_output_1024
.func fft_output_1024
fft_output_1024:
	pushw	T2H,T2L
    16c0:	3f 92       	push	r3
    16c2:	2f 92       	push	r2
	pushw	T4H,T4L
    16c4:	5f 92       	push	r5
    16c6:	4f 92       	push	r4
	pushw	T6H,T6L
    16c8:	7f 92       	push	r7
    16ca:	6f 92       	push	r6
	pushw	T8H,T8L
    16cc:	9f 92       	push	r9
    16ce:	8f 92       	push	r8
	pushw	T10H,T10L
    16d0:	bf 92       	push	r11
    16d2:	af 92       	push	r10
	pushw	AH,AL
    16d4:	1f 93       	push	r17
    16d6:	0f 93       	push	r16
	pushw	YH,YL
    16d8:	df 93       	push	r29
    16da:	cf 93       	push	r28

	movw	T10L, EL			;T10 = array_bfly;
    16dc:	5c 01       	movw	r10, r24
	movw	YL, DL				;Y = array_output;
    16de:	eb 01       	movw	r28, r22
	ldiw	ZH,ZL, tbl_bitrev		;Z = tbl_bitrev;
    16e0:	ee ec       	ldi	r30, 0xCE	; 206
    16e2:	f0 e1       	ldi	r31, 0x10	; 16
	clr	EH				;Zero
    16e4:	99 27       	eor	r25, r25
#ifdef INPUT_IQ
	ldiw	AH,AL, FFT_N_1024			;A = FFT_N; (plus/minus)
#else
	ldiw	AH,AL, FFT_N_1024 / 2		;A = FFT_N / 2; (plus only)
    16e6:	00 e0       	ldi	r16, 0x00	; 0
    16e8:	12 e0       	ldi	r17, 0x02	; 2
#endif
1:	lpmw	XH,XL, Z+			;X = *Z++;
    16ea:	a5 91       	lpm	r26, Z+
    16ec:	b5 91       	lpm	r27, Z+
	addw	XH,XL, T10H,T10L		;X += array_bfly;
    16ee:	aa 0d       	add	r26, r10
    16f0:	bb 1d       	adc	r27, r11
	ldw	BH,BL, X+			;B = *X++;
    16f2:	2d 91       	ld	r18, X+
    16f4:	3d 91       	ld	r19, X+
	ldw	CH,CL, X+			;C = *X++;
    16f6:	4d 91       	ld	r20, X+
    16f8:	5d 91       	ld	r21, X+
	FMULS16	T4H,T4L,T2H,T2L, BH,BL, BH,BL	;T4:T2 = B * B;
    16fa:	b3 03       	fmuls	r19, r19
    16fc:	20 01       	movw	r4, r0
    16fe:	2a 03       	fmul	r18, r18
    1700:	10 01       	movw	r2, r0
    1702:	49 1e       	adc	r4, r25
    1704:	ba 03       	fmulsu	r19, r18
    1706:	59 0a       	sbc	r5, r25
    1708:	30 0c       	add	r3, r0
    170a:	41 1c       	adc	r4, r1
    170c:	59 1e       	adc	r5, r25
    170e:	ba 03       	fmulsu	r19, r18
    1710:	59 0a       	sbc	r5, r25
    1712:	30 0c       	add	r3, r0
    1714:	41 1c       	adc	r4, r1
    1716:	59 1e       	adc	r5, r25
	FMULS16	T8H,T8L,T6H,T6L, CH,CL, CH,CL	;T8:T6 = C * C;
    1718:	d5 03       	fmuls	r21, r21
    171a:	40 01       	movw	r8, r0
    171c:	4c 03       	fmul	r20, r20
    171e:	30 01       	movw	r6, r0
    1720:	89 1e       	adc	r8, r25
    1722:	dc 03       	fmulsu	r21, r20
    1724:	99 0a       	sbc	r9, r25
    1726:	70 0c       	add	r7, r0
    1728:	81 1c       	adc	r8, r1
    172a:	99 1e       	adc	r9, r25
    172c:	dc 03       	fmulsu	r21, r20
    172e:	99 0a       	sbc	r9, r25
    1730:	70 0c       	add	r7, r0
    1732:	81 1c       	adc	r8, r1
    1734:	99 1e       	adc	r9, r25
	addd	T4H,T4L,T2H,T2L, T8H,T8L,T6H,T6L;T4:T2 += T8:T6;
    1736:	26 0c       	add	r2, r6
    1738:	37 1c       	adc	r3, r7
    173a:	48 1c       	adc	r4, r8
    173c:	59 1c       	adc	r5, r9
	SQRT32					;B = sqrt(T4:T2);
    173e:	66 24       	eor	r6, r6
    1740:	77 24       	eor	r7, r7
    1742:	88 24       	eor	r8, r8
    1744:	99 24       	eor	r9, r9
    1746:	21 e0       	ldi	r18, 0x01	; 1
    1748:	30 e0       	ldi	r19, 0x00	; 0
    174a:	44 27       	eor	r20, r20
    174c:	55 27       	eor	r21, r21
    174e:	70 e1       	ldi	r23, 0x10	; 16
    1750:	22 0c       	add	r2, r2
    1752:	33 1c       	adc	r3, r3
    1754:	44 1c       	adc	r4, r4
    1756:	55 1c       	adc	r5, r5
    1758:	66 1c       	adc	r6, r6
    175a:	77 1c       	adc	r7, r7
    175c:	88 1c       	adc	r8, r8
    175e:	99 1c       	adc	r9, r9
    1760:	22 0c       	add	r2, r2
    1762:	33 1c       	adc	r3, r3
    1764:	44 1c       	adc	r4, r4
    1766:	55 1c       	adc	r5, r5
    1768:	66 1c       	adc	r6, r6
    176a:	77 1c       	adc	r7, r7
    176c:	88 1c       	adc	r8, r8
    176e:	99 1c       	adc	r9, r9
    1770:	2a f4       	brpl	.+10     	; 0x177c <fft_output_1024+0xbc>
    1772:	62 0e       	add	r6, r18
    1774:	73 1e       	adc	r7, r19
    1776:	84 1e       	adc	r8, r20
    1778:	95 1e       	adc	r9, r21
    177a:	04 c0       	rjmp	.+8      	; 0x1784 <fft_output_1024+0xc4>
    177c:	62 1a       	sub	r6, r18
    177e:	73 0a       	sbc	r7, r19
    1780:	84 0a       	sbc	r8, r20
    1782:	95 0a       	sbc	r9, r21
    1784:	22 0f       	add	r18, r18
    1786:	33 1f       	adc	r19, r19
    1788:	44 1f       	adc	r20, r20
    178a:	28 7f       	andi	r18, 0xF8	; 248
    178c:	25 60       	ori	r18, 0x05	; 5
    178e:	97 fc       	sbrc	r9, 7
    1790:	22 50       	subi	r18, 0x02	; 2
    1792:	7a 95       	dec	r23
    1794:	e9 f6       	brne	.-70     	; 0x1750 <fft_output_1024+0x90>
    1796:	46 95       	lsr	r20
    1798:	37 95       	ror	r19
    179a:	27 95       	ror	r18
    179c:	46 95       	lsr	r20
    179e:	37 95       	ror	r19
    17a0:	27 95       	ror	r18
	stw	Y+, BH,BL			;*Y++ = B;
    17a2:	29 93       	st	Y+, r18
    17a4:	39 93       	st	Y+, r19
	subiw	AH,AL, 1			;while(--A)
    17a6:	01 50       	subi	r16, 0x01	; 1
    17a8:	10 40       	sbci	r17, 0x00	; 0
	rjne	1b				;/
    17aa:	09 f0       	breq	.+2      	; 0x17ae <fft_output_1024+0xee>
    17ac:	9e cf       	rjmp	.-196    	; 0x16ea <fft_output_1024+0x2a>

	popw	YH,YL
    17ae:	cf 91       	pop	r28
    17b0:	df 91       	pop	r29
	popw	AH,AL
    17b2:	0f 91       	pop	r16
    17b4:	1f 91       	pop	r17
	popw	T10H,T10L
    17b6:	af 90       	pop	r10
    17b8:	bf 90       	pop	r11
	popw	T8H,T8L
    17ba:	8f 90       	pop	r8
    17bc:	9f 90       	pop	r9
	popw	T6H,T6L
    17be:	6f 90       	pop	r6
    17c0:	7f 90       	pop	r7
	popw	T4H,T4L
    17c2:	4f 90       	pop	r4
    17c4:	5f 90       	pop	r5
	popw	T2H,T2L
    17c6:	2f 90       	pop	r2
    17c8:	3f 90       	pop	r3
	clr	r1
    17ca:	11 24       	eor	r1, r1
	ret
    17cc:	08 95       	ret

000017ce <fmuls_f_1024>:

;----------------------------------------------------------------------------;
.global fmuls_f_1024
.func fmuls_f_1024
fmuls_f_1024:
	movw	CL, EL				;C = E;
    17ce:	ac 01       	movw	r20, r24
	clr	EH	;Zero
    17d0:	99 27       	eor	r25, r25
	FMULS16	ZH,ZL,XH,XL, CH,CL, DH,DL	;Z:X = C * D;
    17d2:	d7 03       	fmuls	r21, r23
    17d4:	f0 01       	movw	r30, r0
    17d6:	4e 03       	fmul	r20, r22
    17d8:	d0 01       	movw	r26, r0
    17da:	e9 1f       	adc	r30, r25
    17dc:	de 03       	fmulsu	r21, r22
    17de:	f9 0b       	sbc	r31, r25
    17e0:	b0 0d       	add	r27, r0
    17e2:	e1 1d       	adc	r30, r1
    17e4:	f9 1f       	adc	r31, r25
    17e6:	fc 03       	fmulsu	r23, r20
    17e8:	f9 0b       	sbc	r31, r25
    17ea:	b0 0d       	add	r27, r0
    17ec:	e1 1d       	adc	r30, r1
    17ee:	f9 1f       	adc	r31, r25
	movw	EL, ZL
    17f0:	cf 01       	movw	r24, r30
	clr	r1
    17f2:	11 24       	eor	r1, r1
	ret
    17f4:	08 95       	ret

000017f6 <tbl_window_128>:
    17f6:	3d 0a       	sbc	r3, r29
    17f8:	4f 0a       	sbc	r4, r31
    17fa:	85 0a       	sbc	r8, r21
    17fc:	e0 0a       	sbc	r14, r16
    17fe:	5e 0b       	sbc	r21, r30
    1800:	01 0c       	add	r0, r1
    1802:	c6 0c       	add	r12, r6
    1804:	ae 0d       	add	r26, r14
    1806:	b8 0e       	add	r11, r24
    1808:	e4 0f       	add	r30, r20
    180a:	31 11       	cpse	r19, r1
    180c:	9d 12       	cpse	r9, r29
    180e:	29 14       	cp	r2, r9
    1810:	d3 15       	cp	r29, r3
    1812:	9a 17       	cp	r25, r26
    1814:	7d 19       	sub	r23, r13
    1816:	7c 1b       	sub	r23, r28
    1818:	93 1d       	adc	r25, r3
    181a:	c4 1f       	adc	r28, r20
    181c:	0b 22       	and	r0, r27
    181e:	68 24       	eor	r6, r8
    1820:	d9 26       	eor	r13, r25
    1822:	5c 29       	or	r21, r12
    1824:	f1 2b       	or	r31, r17
    1826:	96 2e       	mov	r9, r22
    1828:	48 31       	cpi	r20, 0x18	; 24
    182a:	06 34       	cpi	r16, 0x46	; 70
    182c:	cf 36       	cpi	r28, 0x6F	; 111
    182e:	a1 39       	cpi	r26, 0x91	; 145
    1830:	7a 3c       	cpi	r23, 0xCA	; 202
    1832:	58 3f       	cpi	r21, 0xF8	; 248
    1834:	3a 42       	sbci	r19, 0x2A	; 42
    1836:	1e 45       	sbci	r17, 0x5E	; 94
    1838:	01 48       	sbci	r16, 0x81	; 129
    183a:	e3 4a       	sbci	r30, 0xA3	; 163
    183c:	c1 4d       	sbci	r28, 0xD1	; 209
    183e:	9a 50       	subi	r25, 0x0A	; 10
    1840:	6c 53       	subi	r22, 0x3C	; 60
    1842:	35 56       	subi	r19, 0x65	; 101
    1844:	f4 58       	subi	r31, 0x84	; 132
    1846:	a6 5b       	subi	r26, 0xB6	; 182
    1848:	4a 5e       	subi	r20, 0xEA	; 234
    184a:	df 60       	ori	r29, 0x0F	; 15
    184c:	63 63       	ori	r22, 0x33	; 51
    184e:	d4 65       	ori	r29, 0x54	; 84
    1850:	31 68       	ori	r19, 0x81	; 129
    1852:	78 6a       	ori	r23, 0xA8	; 168
    1854:	a8 6c       	ori	r26, 0xC8	; 200
    1856:	c0 6e       	ori	r28, 0xE0	; 224
    1858:	be 70       	andi	r27, 0x0E	; 14
    185a:	a1 72       	andi	r26, 0x21	; 33
    185c:	68 74       	andi	r22, 0x48	; 72
    185e:	12 76       	andi	r17, 0x62	; 98
    1860:	9e 77       	andi	r25, 0x7E	; 126
    1862:	0b 79       	andi	r16, 0x9B	; 155
    1864:	57 7a       	andi	r21, 0xA7	; 167
    1866:	83 7b       	andi	r24, 0xB3	; 179
    1868:	8d 7c       	andi	r24, 0xCD	; 205
    186a:	75 7d       	andi	r23, 0xD5	; 213
    186c:	3b 7e       	andi	r19, 0xEB	; 235
    186e:	dd 7e       	andi	r29, 0xED	; 237
    1870:	5b 7f       	andi	r21, 0xFB	; 251
    1872:	b6 7f       	andi	r27, 0xF6	; 246
    1874:	ec 7f       	andi	r30, 0xFC	; 252
    1876:	fe 7f       	andi	r31, 0xFE	; 254
    1878:	ec 7f       	andi	r30, 0xFC	; 252
    187a:	b6 7f       	andi	r27, 0xF6	; 246
    187c:	5b 7f       	andi	r21, 0xFB	; 251
    187e:	dd 7e       	andi	r29, 0xED	; 237
    1880:	3b 7e       	andi	r19, 0xEB	; 235
    1882:	75 7d       	andi	r23, 0xD5	; 213
    1884:	8d 7c       	andi	r24, 0xCD	; 205
    1886:	83 7b       	andi	r24, 0xB3	; 179
    1888:	57 7a       	andi	r21, 0xA7	; 167
    188a:	0b 79       	andi	r16, 0x9B	; 155
    188c:	9e 77       	andi	r25, 0x7E	; 126
    188e:	12 76       	andi	r17, 0x62	; 98
    1890:	68 74       	andi	r22, 0x48	; 72
    1892:	a1 72       	andi	r26, 0x21	; 33
    1894:	be 70       	andi	r27, 0x0E	; 14
    1896:	c0 6e       	ori	r28, 0xE0	; 224
    1898:	a8 6c       	ori	r26, 0xC8	; 200
    189a:	78 6a       	ori	r23, 0xA8	; 168
    189c:	31 68       	ori	r19, 0x81	; 129
    189e:	d4 65       	ori	r29, 0x54	; 84
    18a0:	63 63       	ori	r22, 0x33	; 51
    18a2:	df 60       	ori	r29, 0x0F	; 15
    18a4:	4a 5e       	subi	r20, 0xEA	; 234
    18a6:	a6 5b       	subi	r26, 0xB6	; 182
    18a8:	f4 58       	subi	r31, 0x84	; 132
    18aa:	35 56       	subi	r19, 0x65	; 101
    18ac:	6c 53       	subi	r22, 0x3C	; 60
    18ae:	9a 50       	subi	r25, 0x0A	; 10
    18b0:	c1 4d       	sbci	r28, 0xD1	; 209
    18b2:	e3 4a       	sbci	r30, 0xA3	; 163
    18b4:	01 48       	sbci	r16, 0x81	; 129
    18b6:	1e 45       	sbci	r17, 0x5E	; 94
    18b8:	3a 42       	sbci	r19, 0x2A	; 42
    18ba:	58 3f       	cpi	r21, 0xF8	; 248
    18bc:	7a 3c       	cpi	r23, 0xCA	; 202
    18be:	a1 39       	cpi	r26, 0x91	; 145
    18c0:	cf 36       	cpi	r28, 0x6F	; 111
    18c2:	06 34       	cpi	r16, 0x46	; 70
    18c4:	48 31       	cpi	r20, 0x18	; 24
    18c6:	96 2e       	mov	r9, r22
    18c8:	f1 2b       	or	r31, r17
    18ca:	5c 29       	or	r21, r12
    18cc:	d9 26       	eor	r13, r25
    18ce:	68 24       	eor	r6, r8
    18d0:	0b 22       	and	r0, r27
    18d2:	c4 1f       	adc	r28, r20
    18d4:	93 1d       	adc	r25, r3
    18d6:	7c 1b       	sub	r23, r28
    18d8:	7e 19       	sub	r23, r14
    18da:	9a 17       	cp	r25, r26
    18dc:	d3 15       	cp	r29, r3
    18de:	29 14       	cp	r2, r9
    18e0:	9d 12       	cpse	r9, r29
    18e2:	31 11       	cpse	r19, r1
    18e4:	e4 0f       	add	r30, r20
    18e6:	b8 0e       	add	r11, r24
    18e8:	ae 0d       	add	r26, r14
    18ea:	c6 0c       	add	r12, r6
    18ec:	01 0c       	add	r0, r1
    18ee:	5e 0b       	sbc	r21, r30
    18f0:	e0 0a       	sbc	r14, r16
    18f2:	85 0a       	sbc	r8, r21
    18f4:	4f 0a       	sbc	r4, r31

000018f6 <tbl_cos_sin>:
    18f6:	ff 7f       	andi	r31, 0xFF	; 255
    18f8:	00 00       	nop
    18fa:	d7 7f       	andi	r29, 0xF7	; 247
    18fc:	47 06       	cpc	r4, r23
    18fe:	61 7f       	andi	r22, 0xF1	; 241
    1900:	8b 0c       	add	r8, r11
    1902:	9c 7e       	andi	r25, 0xEC	; 236
    1904:	c7 12       	cpse	r12, r23
    1906:	89 7d       	andi	r24, 0xD9	; 217
    1908:	f8 18       	sub	r15, r8
    190a:	29 7c       	andi	r18, 0xC9	; 201
    190c:	19 1f       	adc	r17, r25
    190e:	7c 7a       	andi	r23, 0xAC	; 172
    1910:	27 25       	eor	r18, r7
    1912:	83 78       	andi	r24, 0x83	; 131
    1914:	1e 2b       	or	r17, r30
    1916:	40 76       	andi	r20, 0x60	; 96
    1918:	fb 30       	cpi	r31, 0x0B	; 11
    191a:	b5 73       	andi	r27, 0x35	; 53
    191c:	b9 36       	cpi	r27, 0x69	; 105
    191e:	e1 70       	andi	r30, 0x01	; 1
    1920:	56 3c       	cpi	r21, 0xC6	; 198
    1922:	c9 6d       	ori	r28, 0xD9	; 217
    1924:	cd 41       	sbci	r28, 0x1D	; 29
    1926:	6c 6a       	ori	r22, 0xAC	; 172
    1928:	1c 47       	sbci	r17, 0x7C	; 124
    192a:	ce 66       	ori	r28, 0x6E	; 110
    192c:	3f 4c       	sbci	r19, 0xCF	; 207
    192e:	f1 62       	ori	r31, 0x21	; 33
    1930:	33 51       	subi	r19, 0x13	; 19
    1932:	d6 5e       	subi	r29, 0xE6	; 230
    1934:	f4 55       	subi	r31, 0x54	; 84
    1936:	81 5a       	subi	r24, 0xA1	; 161
    1938:	81 5a       	subi	r24, 0xA1	; 161
    193a:	f4 55       	subi	r31, 0x54	; 84
    193c:	d6 5e       	subi	r29, 0xE6	; 230
    193e:	33 51       	subi	r19, 0x13	; 19
    1940:	f1 62       	ori	r31, 0x21	; 33
    1942:	3f 4c       	sbci	r19, 0xCF	; 207
    1944:	ce 66       	ori	r28, 0x6E	; 110
    1946:	1c 47       	sbci	r17, 0x7C	; 124
    1948:	6c 6a       	ori	r22, 0xAC	; 172
    194a:	cd 41       	sbci	r28, 0x1D	; 29
    194c:	c9 6d       	ori	r28, 0xD9	; 217
    194e:	56 3c       	cpi	r21, 0xC6	; 198
    1950:	e1 70       	andi	r30, 0x01	; 1
    1952:	b9 36       	cpi	r27, 0x69	; 105
    1954:	b5 73       	andi	r27, 0x35	; 53
    1956:	fb 30       	cpi	r31, 0x0B	; 11
    1958:	40 76       	andi	r20, 0x60	; 96
    195a:	1e 2b       	or	r17, r30
    195c:	83 78       	andi	r24, 0x83	; 131
    195e:	27 25       	eor	r18, r7
    1960:	7c 7a       	andi	r23, 0xAC	; 172
    1962:	19 1f       	adc	r17, r25
    1964:	29 7c       	andi	r18, 0xC9	; 201
    1966:	f8 18       	sub	r15, r8
    1968:	89 7d       	andi	r24, 0xD9	; 217
    196a:	c7 12       	cpse	r12, r23
    196c:	9c 7e       	andi	r25, 0xEC	; 236
    196e:	8b 0c       	add	r8, r11
    1970:	61 7f       	andi	r22, 0xF1	; 241
    1972:	47 06       	cpc	r4, r23
    1974:	d7 7f       	andi	r29, 0xF7	; 247
    1976:	00 00       	nop
    1978:	fe 7f       	andi	r31, 0xFE	; 254
    197a:	b9 f9       	.word	0xf9b9	; ????
    197c:	d7 7f       	andi	r29, 0xF7	; 247
    197e:	75 f3       	brhs	.-36     	; 0x195c <tbl_cos_sin+0x66>
    1980:	61 7f       	andi	r22, 0xF1	; 241
    1982:	39 ed       	ldi	r19, 0xD9	; 217
    1984:	9c 7e       	andi	r25, 0xEC	; 236
    1986:	08 e7       	ldi	r16, 0x78	; 120
    1988:	89 7d       	andi	r24, 0xD9	; 217
    198a:	e7 e0       	ldi	r30, 0x07	; 7
    198c:	29 7c       	andi	r18, 0xC9	; 201
    198e:	d9 da       	rcall	.-2638   	; 0xf42 <tbl_cos_sin+0x674>
    1990:	7c 7a       	andi	r23, 0xAC	; 172
    1992:	e2 d4       	rcall	.+2500   	; 0x2358 <fft_execute_256+0x5c>
    1994:	83 78       	andi	r24, 0x83	; 131
    1996:	05 cf       	rjmp	.-502    	; 0x17a2 <fft_output_1024+0xe2>
    1998:	40 76       	andi	r20, 0x60	; 96
    199a:	47 c9       	rjmp	.-3442   	; 0xc2a <tbl_cos_sin+0x35c>
    199c:	b5 73       	andi	r27, 0x35	; 53
    199e:	aa c3       	rjmp	.+1876   	; 0x20f4 <tbl_cos_sin+0x156>
    19a0:	e1 70       	andi	r30, 0x01	; 1
    19a2:	33 be       	out	0x33, r3	; 51
    19a4:	c9 6d       	ori	r28, 0xD9	; 217
    19a6:	e4 b8       	out	0x04, r14	; 4
    19a8:	6c 6a       	ori	r22, 0xAC	; 172
    19aa:	c1 b3       	in	r28, 0x11	; 17
    19ac:	ce 66       	ori	r28, 0x6E	; 110
    19ae:	cd ae       	std	Y+61, r12	; 0x3d
    19b0:	f1 62       	ori	r31, 0x21	; 33
    19b2:	0c aa       	std	Y+52, r0	; 0x34
    19b4:	d6 5e       	subi	r29, 0xE6	; 230
    19b6:	7f a5       	ldd	r23, Y+47	; 0x2f
    19b8:	81 5a       	subi	r24, 0xA1	; 161
    19ba:	2a a1       	ldd	r18, Y+34	; 0x22
    19bc:	f5 55       	subi	r31, 0x55	; 85
    19be:	0f 9d       	mul	r16, r15
    19c0:	33 51       	subi	r19, 0x13	; 19
    19c2:	32 99       	sbic	0x06, 2	; 6
    19c4:	3f 4c       	sbci	r19, 0xCF	; 207
    19c6:	94 95       	.word	0x9594	; ????
    19c8:	1c 47       	sbci	r17, 0x7C	; 124
    19ca:	37 92       	lat	Z, r3
    19cc:	cd 41       	sbci	r28, 0x1D	; 29
    19ce:	1f 8f       	std	Y+31, r17	; 0x1f
    19d0:	56 3c       	cpi	r21, 0xC6	; 198
    19d2:	4c 8c       	ldd	r4, Y+28	; 0x1c
    19d4:	b9 36       	cpi	r27, 0x69	; 105
    19d6:	c0 89       	ldd	r28, Z+16	; 0x10
    19d8:	fb 30       	cpi	r31, 0x0B	; 11
    19da:	7d 87       	std	Y+13, r23	; 0x0d
    19dc:	1e 2b       	or	r17, r30
    19de:	84 85       	ldd	r24, Z+12	; 0x0c
    19e0:	27 25       	eor	r18, r7
    19e2:	d8 83       	st	Y, r29
    19e4:	19 1f       	adc	r17, r25
    19e6:	77 82       	std	Z+7, r7	; 0x07
    19e8:	f8 18       	sub	r15, r8
    19ea:	64 81       	ldd	r22, Z+4	; 0x04
    19ec:	c7 12       	cpse	r12, r23
    19ee:	9f 80       	ldd	r9, Y+7	; 0x07
    19f0:	8b 0c       	add	r8, r11
    19f2:	29 80       	ldd	r2, Y+1	; 0x01
    19f4:	47 06       	cpc	r4, r23

000019f6 <tbl_bitrev>:
    19f6:	00 00       	nop
    19f8:	00 01       	movw	r0, r0
    19fa:	80 00       	.word	0x0080	; ????
    19fc:	80 01       	movw	r16, r0
    19fe:	40 00       	.word	0x0040	; ????
    1a00:	40 01       	movw	r8, r0
    1a02:	c0 00       	.word	0x00c0	; ????
    1a04:	c0 01       	movw	r24, r0
    1a06:	20 00       	.word	0x0020	; ????
    1a08:	20 01       	movw	r4, r0
    1a0a:	a0 00       	.word	0x00a0	; ????
    1a0c:	a0 01       	movw	r20, r0
    1a0e:	60 00       	.word	0x0060	; ????
    1a10:	60 01       	movw	r12, r0
    1a12:	e0 00       	.word	0x00e0	; ????
    1a14:	e0 01       	movw	r28, r0
    1a16:	10 00       	.word	0x0010	; ????
    1a18:	10 01       	movw	r2, r0
    1a1a:	90 00       	.word	0x0090	; ????
    1a1c:	90 01       	movw	r18, r0
    1a1e:	50 00       	.word	0x0050	; ????
    1a20:	50 01       	movw	r10, r0
    1a22:	d0 00       	.word	0x00d0	; ????
    1a24:	d0 01       	movw	r26, r0
    1a26:	30 00       	.word	0x0030	; ????
    1a28:	30 01       	movw	r6, r0
    1a2a:	b0 00       	.word	0x00b0	; ????
    1a2c:	b0 01       	movw	r22, r0
    1a2e:	70 00       	.word	0x0070	; ????
    1a30:	70 01       	movw	r14, r0
    1a32:	f0 00       	.word	0x00f0	; ????
    1a34:	f0 01       	movw	r30, r0
    1a36:	08 00       	.word	0x0008	; ????
    1a38:	08 01       	movw	r0, r16
    1a3a:	88 00       	.word	0x0088	; ????
    1a3c:	88 01       	movw	r16, r16
    1a3e:	48 00       	.word	0x0048	; ????
    1a40:	48 01       	movw	r8, r16
    1a42:	c8 00       	.word	0x00c8	; ????
    1a44:	c8 01       	movw	r24, r16
    1a46:	28 00       	.word	0x0028	; ????
    1a48:	28 01       	movw	r4, r16
    1a4a:	a8 00       	.word	0x00a8	; ????
    1a4c:	a8 01       	movw	r20, r16
    1a4e:	68 00       	.word	0x0068	; ????
    1a50:	68 01       	movw	r12, r16
    1a52:	e8 00       	.word	0x00e8	; ????
    1a54:	e8 01       	movw	r28, r16
    1a56:	18 00       	.word	0x0018	; ????
    1a58:	18 01       	movw	r2, r16
    1a5a:	98 00       	.word	0x0098	; ????
    1a5c:	98 01       	movw	r18, r16
    1a5e:	58 00       	.word	0x0058	; ????
    1a60:	58 01       	movw	r10, r16
    1a62:	d8 00       	.word	0x00d8	; ????
    1a64:	d8 01       	movw	r26, r16
    1a66:	38 00       	.word	0x0038	; ????
    1a68:	38 01       	movw	r6, r16
    1a6a:	b8 00       	.word	0x00b8	; ????
    1a6c:	b8 01       	movw	r22, r16
    1a6e:	78 00       	.word	0x0078	; ????
    1a70:	78 01       	movw	r14, r16
    1a72:	f8 00       	.word	0x00f8	; ????
    1a74:	f8 01       	movw	r30, r16

00001a76 <fft_input_128>:
;----------------------------------------------------------------------------;
#ifndef INPUT_NOISE
.global fft_input_128
.func fft_input_128
fft_input_128:
	pushw	T2H,T2L
    1a76:	3f 92       	push	r3
    1a78:	2f 92       	push	r2
	pushw	AH,AL
    1a7a:	1f 93       	push	r17
    1a7c:	0f 93       	push	r16
	pushw	YH,YL
    1a7e:	df 93       	push	r29
    1a80:	cf 93       	push	r28

	movw	XL, EL				;X = array_src;
    1a82:	dc 01       	movw	r26, r24
	movw	YL, DL				;Y = array_bfly;
    1a84:	eb 01       	movw	r28, r22
	clr	EH				;Zero
    1a86:	99 27       	eor	r25, r25
	ldiw	ZH,ZL, tbl_window_128		;Z = &tbl_window[0];
    1a88:	e6 ef       	ldi	r30, 0xF6	; 246
    1a8a:	f7 e1       	ldi	r31, 0x17	; 23
	ldiw	AH,AL, FFT_N_128			;A = FFT_N;
    1a8c:	00 e8       	ldi	r16, 0x80	; 128
    1a8e:	10 e0       	ldi	r17, 0x00	; 0
1:	lpmw	BH,BL, Z+			;B = *Z++; (window)
    1a90:	25 91       	lpm	r18, Z+
    1a92:	35 91       	lpm	r19, Z+
	ldw	CH,CL, X+			;C = *X++; (I-axis)
    1a94:	4d 91       	ld	r20, X+
    1a96:	5d 91       	ld	r21, X+
	FMULS16	DH,DL,T2H,T2L, BH,BL, CH,CL	;D = B * C;
    1a98:	b5 03       	fmuls	r19, r21
    1a9a:	b0 01       	movw	r22, r0
    1a9c:	2c 03       	fmul	r18, r20
    1a9e:	10 01       	movw	r2, r0
    1aa0:	69 1f       	adc	r22, r25
    1aa2:	bc 03       	fmulsu	r19, r20
    1aa4:	79 0b       	sbc	r23, r25
    1aa6:	30 0c       	add	r3, r0
    1aa8:	61 1d       	adc	r22, r1
    1aaa:	79 1f       	adc	r23, r25
    1aac:	da 03       	fmulsu	r21, r18
    1aae:	79 0b       	sbc	r23, r25
    1ab0:	30 0c       	add	r3, r0
    1ab2:	61 1d       	adc	r22, r1
    1ab4:	79 1f       	adc	r23, r25
	stw	Y+, DH,DL			;*Y++ = D;
    1ab6:	69 93       	st	Y+, r22
    1ab8:	79 93       	st	Y+, r23
#ifdef INPUT_IQ
	ldw	CH,CL, X+			;C = *X++; (Q-axis)
	FMULS16	DH,DL,T2H,T2L, BH,BL, CH,CL	;D = B * C;
#endif
	stw	Y+, DH,DL			;*Y++ = D;
    1aba:	69 93       	st	Y+, r22
    1abc:	79 93       	st	Y+, r23
	subiw	AH,AL, 1			;while(--A)
    1abe:	01 50       	subi	r16, 0x01	; 1
    1ac0:	10 40       	sbci	r17, 0x00	; 0
	brne	1b				;/
    1ac2:	31 f7       	brne	.-52     	; 0x1a90 <fft_input_128+0x1a>

	popw	YH,YL
    1ac4:	cf 91       	pop	r28
    1ac6:	df 91       	pop	r29
	popw	AH,AL
    1ac8:	0f 91       	pop	r16
    1aca:	1f 91       	pop	r17
	popw	T2H,T2L
    1acc:	2f 90       	pop	r2
    1ace:	3f 90       	pop	r3
	clr	r1
    1ad0:	11 24       	eor	r1, r1
	ret
    1ad2:	08 95       	ret

00001ad4 <fft_execute_128>:

;----------------------------------------------------------------------------;
.global fft_execute_128
.func fft_execute_128
fft_execute_128:
	pushw	T2H,T2L
    1ad4:	3f 92       	push	r3
    1ad6:	2f 92       	push	r2
	pushw	T4H,T4L
    1ad8:	5f 92       	push	r5
    1ada:	4f 92       	push	r4
	pushw	T6H,T6L
    1adc:	7f 92       	push	r7
    1ade:	6f 92       	push	r6
	pushw	T8H,T8L
    1ae0:	9f 92       	push	r9
    1ae2:	8f 92       	push	r8
	pushw	T10H,T10L
    1ae4:	bf 92       	push	r11
    1ae6:	af 92       	push	r10
	pushw	T12H,T12L
    1ae8:	df 92       	push	r13
    1aea:	cf 92       	push	r12
	pushw	T14H,T14L
    1aec:	ff 92       	push	r15
    1aee:	ef 92       	push	r14
	pushw	AH,AL
    1af0:	1f 93       	push	r17
    1af2:	0f 93       	push	r16
	pushw	YH,YL
    1af4:	df 93       	push	r29
    1af6:	cf 93       	push	r28

	movw	ZL, EL				;Z = array_bfly;
    1af8:	fc 01       	movw	r30, r24
	ldiw	EH,EL, 1			;E = 1;
    1afa:	81 e0       	ldi	r24, 0x01	; 1
    1afc:	90 e0       	ldi	r25, 0x00	; 0
	ldiw	XH,XL, FFT_N_128/2			;X = FFT_N/2;
    1afe:	a0 e4       	ldi	r26, 0x40	; 64
    1b00:	b0 e0       	ldi	r27, 0x00	; 0
1:	ldi	AL, 4				;T12 = E; (angular speed)
    1b02:	04 e0       	ldi	r16, 0x04	; 4
	mul	EL, AL				;
    1b04:	80 9f       	mul	r24, r16
	movw	T12L, T0L			;
    1b06:	60 01       	movw	r12, r0
	mul	EH, AL				;
    1b08:	90 9f       	mul	r25, r16
	add	T12H, T0L			;/
    1b0a:	d0 0c       	add	r13, r0
	movw	T14L, EL			;T14 = E;
    1b0c:	7c 01       	movw	r14, r24
	pushw	EH,EL
    1b0e:	9f 93       	push	r25
    1b10:	8f 93       	push	r24
	movw	YL, ZL				;Z = &array_bfly[0];
    1b12:	ef 01       	movw	r28, r30
	mul	XL, AL				;Y = &array_bfly[X];
    1b14:	a0 9f       	mul	r26, r16
	addw	YH,YL, T0H,T0L			;
    1b16:	c0 0d       	add	r28, r0
    1b18:	d1 1d       	adc	r29, r1
	mul	XH, AL				;
    1b1a:	b0 9f       	mul	r27, r16
	add	YH, T0L				;/
    1b1c:	d0 0d       	add	r29, r0
	pushw	ZH,ZL
    1b1e:	ff 93       	push	r31
    1b20:	ef 93       	push	r30
2:	clrw	T10H,T10L			;T10 = 0 (angle)
    1b22:	bb 24       	eor	r11, r11
    1b24:	aa 24       	eor	r10, r10
	clr	EH				;Zero reg.
    1b26:	99 27       	eor	r25, r25
3:	lddw	AH,AL, Z+0			;A = *Z - *Y; *Z++ += *Y;
    1b28:	00 81       	ld	r16, Z
    1b2a:	11 81       	ldd	r17, Z+1	; 0x01
	asrw	AH,AL				;
    1b2c:	15 95       	asr	r17
    1b2e:	07 95       	ror	r16
	lddw	DH,DL, Y+0			;
    1b30:	68 81       	ld	r22, Y
    1b32:	79 81       	ldd	r23, Y+1	; 0x01
	asrw	DH,DL				;
    1b34:	75 95       	asr	r23
    1b36:	67 95       	ror	r22
	movw	CL, AL				;
    1b38:	a8 01       	movw	r20, r16
	subw	AH,AL, DH,DL			;
    1b3a:	06 1b       	sub	r16, r22
    1b3c:	17 0b       	sbc	r17, r23
	addw	CH,CL, DH,DL			;
    1b3e:	46 0f       	add	r20, r22
    1b40:	57 1f       	adc	r21, r23
	stw	Z+, CH,CL			;/
    1b42:	41 93       	st	Z+, r20
    1b44:	51 93       	st	Z+, r21
	lddw	BH,BL, Z+0			;B = *Z - *Y; *Z++ += *Y;
    1b46:	20 81       	ld	r18, Z
    1b48:	31 81       	ldd	r19, Z+1	; 0x01
	asrw	BH,BL				;
    1b4a:	35 95       	asr	r19
    1b4c:	27 95       	ror	r18
	lddw	DH,DL, Y+2			;
    1b4e:	6a 81       	ldd	r22, Y+2	; 0x02
    1b50:	7b 81       	ldd	r23, Y+3	; 0x03
	asrw	DH,DL				;
    1b52:	75 95       	asr	r23
    1b54:	67 95       	ror	r22
	movw	CL, BL				;
    1b56:	a9 01       	movw	r20, r18
	subw	BH,BL, DH,DL			;
    1b58:	26 1b       	sub	r18, r22
    1b5a:	37 0b       	sbc	r19, r23
	addw	CH,CL, DH,DL			;
    1b5c:	46 0f       	add	r20, r22
    1b5e:	57 1f       	adc	r21, r23
	stw	Z+, CH,CL			;/
    1b60:	41 93       	st	Z+, r20
    1b62:	51 93       	st	Z+, r21
	movw	T0L, ZL
    1b64:	0f 01       	movw	r0, r30
	ldiw	ZH,ZL, tbl_cos_sin		;C = cos(T10); D = sin(T10);
    1b66:	e6 ef       	ldi	r30, 0xF6	; 246
    1b68:	f8 e1       	ldi	r31, 0x18	; 24
	addw	ZH,ZL, T10H,T10L		;
    1b6a:	ea 0d       	add	r30, r10
    1b6c:	fb 1d       	adc	r31, r11
	lpmw	CH,CL, Z+			;
    1b6e:	45 91       	lpm	r20, Z+
    1b70:	55 91       	lpm	r21, Z+
	lpmw	DH,DL, Z+			;/
    1b72:	65 91       	lpm	r22, Z+
    1b74:	75 91       	lpm	r23, Z+
	movw	ZL, T0L
    1b76:	f0 01       	movw	r30, r0
	FMULS16	T4H,T4L,T2H,T2L, AH,AL, CH,CL	;*Y++ = A * C + B * D;
    1b78:	95 03       	fmuls	r17, r21
    1b7a:	20 01       	movw	r4, r0
    1b7c:	0c 03       	fmul	r16, r20
    1b7e:	10 01       	movw	r2, r0
    1b80:	49 1e       	adc	r4, r25
    1b82:	9c 03       	fmulsu	r17, r20
    1b84:	59 0a       	sbc	r5, r25
    1b86:	30 0c       	add	r3, r0
    1b88:	41 1c       	adc	r4, r1
    1b8a:	59 1e       	adc	r5, r25
    1b8c:	d8 03       	fmulsu	r21, r16
    1b8e:	59 0a       	sbc	r5, r25
    1b90:	30 0c       	add	r3, r0
    1b92:	41 1c       	adc	r4, r1
    1b94:	59 1e       	adc	r5, r25
	FMULS16	T8H,T8L,T6H,T6L, BH,BL, DH,DL	;
    1b96:	b7 03       	fmuls	r19, r23
    1b98:	40 01       	movw	r8, r0
    1b9a:	2e 03       	fmul	r18, r22
    1b9c:	30 01       	movw	r6, r0
    1b9e:	89 1e       	adc	r8, r25
    1ba0:	be 03       	fmulsu	r19, r22
    1ba2:	99 0a       	sbc	r9, r25
    1ba4:	70 0c       	add	r7, r0
    1ba6:	81 1c       	adc	r8, r1
    1ba8:	99 1e       	adc	r9, r25
    1baa:	fa 03       	fmulsu	r23, r18
    1bac:	99 0a       	sbc	r9, r25
    1bae:	70 0c       	add	r7, r0
    1bb0:	81 1c       	adc	r8, r1
    1bb2:	99 1e       	adc	r9, r25
	addd	T4H,T4L,T2H,T2L, T8H,T8L,T6H,T6L;
    1bb4:	26 0c       	add	r2, r6
    1bb6:	37 1c       	adc	r3, r7
    1bb8:	48 1c       	adc	r4, r8
    1bba:	59 1c       	adc	r5, r9
	stw	Y+, T4H,T4L			;/
    1bbc:	49 92       	st	Y+, r4
    1bbe:	59 92       	st	Y+, r5
	FMULS16	T4H,T4L,T2H,T2L, BH,BL, CH,CL 	;*Y++ = B * C - A * D;
    1bc0:	b5 03       	fmuls	r19, r21
    1bc2:	20 01       	movw	r4, r0
    1bc4:	2c 03       	fmul	r18, r20
    1bc6:	10 01       	movw	r2, r0
    1bc8:	49 1e       	adc	r4, r25
    1bca:	bc 03       	fmulsu	r19, r20
    1bcc:	59 0a       	sbc	r5, r25
    1bce:	30 0c       	add	r3, r0
    1bd0:	41 1c       	adc	r4, r1
    1bd2:	59 1e       	adc	r5, r25
    1bd4:	da 03       	fmulsu	r21, r18
    1bd6:	59 0a       	sbc	r5, r25
    1bd8:	30 0c       	add	r3, r0
    1bda:	41 1c       	adc	r4, r1
    1bdc:	59 1e       	adc	r5, r25
	FMULS16	T8H,T8L,T6H,T6L, AH,AL, DH,DL 	;
    1bde:	97 03       	fmuls	r17, r23
    1be0:	40 01       	movw	r8, r0
    1be2:	0e 03       	fmul	r16, r22
    1be4:	30 01       	movw	r6, r0
    1be6:	89 1e       	adc	r8, r25
    1be8:	9e 03       	fmulsu	r17, r22
    1bea:	99 0a       	sbc	r9, r25
    1bec:	70 0c       	add	r7, r0
    1bee:	81 1c       	adc	r8, r1
    1bf0:	99 1e       	adc	r9, r25
    1bf2:	f8 03       	fmulsu	r23, r16
    1bf4:	99 0a       	sbc	r9, r25
    1bf6:	70 0c       	add	r7, r0
    1bf8:	81 1c       	adc	r8, r1
    1bfa:	99 1e       	adc	r9, r25
	subd	T4H,T4L,T2H,T2L, T8H,T8L,T6H,T6L;
    1bfc:	26 18       	sub	r2, r6
    1bfe:	37 08       	sbc	r3, r7
    1c00:	48 08       	sbc	r4, r8
    1c02:	59 08       	sbc	r5, r9
	stw	Y+, T4H,T4L			;/
    1c04:	49 92       	st	Y+, r4
    1c06:	59 92       	st	Y+, r5
	addw	T10H,T10L, T12H,T12L		;T10 += T12; (next angle)
    1c08:	ac 0c       	add	r10, r12
    1c0a:	bd 1c       	adc	r11, r13
#if FFT_N_128 >= 128
	sbrs	T10H, FFT_B_128 - 7			;while(T10 < pi)
    1c0c:	b0 fe       	sbrs	r11, 0
#else
	sbrs	T10L, FFT_B_128 + 1
#endif
	rjmp	3b				;/
    1c0e:	8c cf       	rjmp	.-232    	; 0x1b28 <fft_execute_128+0x54>
	ldi	AL, 4				;Y += X; Z += X; (skip split segment)
    1c10:	04 e0       	ldi	r16, 0x04	; 4
	mul	XL, AL
    1c12:	a0 9f       	mul	r26, r16
	addw	YH,YL, T0H,T0L			;
    1c14:	c0 0d       	add	r28, r0
    1c16:	d1 1d       	adc	r29, r1
	addw	ZH,ZL, T0H,T0L			;
    1c18:	e0 0d       	add	r30, r0
    1c1a:	f1 1d       	adc	r31, r1
	mul	XH, AL				;
    1c1c:	b0 9f       	mul	r27, r16
	add	YH, T0L				;
    1c1e:	d0 0d       	add	r29, r0
	add	ZH, T0L				;/
    1c20:	f0 0d       	add	r31, r0
	ldi	EL, 1				;while(--T14)
    1c22:	81 e0       	ldi	r24, 0x01	; 1
	subw	T14H,T14L, EH,EL		;
    1c24:	e8 1a       	sub	r14, r24
    1c26:	f9 0a       	sbc	r15, r25
	rjne	2b				;/
    1c28:	09 f0       	breq	.+2      	; 0x1c2c <fft_execute_128+0x158>
    1c2a:	7b cf       	rjmp	.-266    	; 0x1b22 <fft_execute_128+0x4e>
	popw	ZH,ZL
    1c2c:	ef 91       	pop	r30
    1c2e:	ff 91       	pop	r31
	popw	EH,EL
    1c30:	8f 91       	pop	r24
    1c32:	9f 91       	pop	r25
	lslw	EH,EL				;E *= 2;
    1c34:	88 0f       	add	r24, r24
    1c36:	99 1f       	adc	r25, r25
	lsrw	XH,XL				;while(X /= 2)
    1c38:	b6 95       	lsr	r27
    1c3a:	a7 95       	ror	r26
	adiw	XL, 0				;
    1c3c:	10 96       	adiw	r26, 0x00	; 0
	rjne	1b				;/
    1c3e:	09 f0       	breq	.+2      	; 0x1c42 <fft_execute_128+0x16e>
    1c40:	60 cf       	rjmp	.-320    	; 0x1b02 <fft_execute_128+0x2e>

	popw	YH,YL
    1c42:	cf 91       	pop	r28
    1c44:	df 91       	pop	r29
	popw	AH,AL
    1c46:	0f 91       	pop	r16
    1c48:	1f 91       	pop	r17
	popw	T14H,T14L
    1c4a:	ef 90       	pop	r14
    1c4c:	ff 90       	pop	r15
	popw	T12H,T12L
    1c4e:	cf 90       	pop	r12
    1c50:	df 90       	pop	r13
	popw	T10H,T10L
    1c52:	af 90       	pop	r10
    1c54:	bf 90       	pop	r11
	popw	T8H,T8L
    1c56:	8f 90       	pop	r8
    1c58:	9f 90       	pop	r9
	popw	T6H,T6L
    1c5a:	6f 90       	pop	r6
    1c5c:	7f 90       	pop	r7
	popw	T4H,T4L
    1c5e:	4f 90       	pop	r4
    1c60:	5f 90       	pop	r5
	popw	T2H,T2L
    1c62:	2f 90       	pop	r2
    1c64:	3f 90       	pop	r3
;	clr	r1
	ret
    1c66:	08 95       	ret

00001c68 <fft_output_128>:

;----------------------------------------------------------------------------;
.global fft_output_128
.func fft_output_128
fft_output_128:
	pushw	T2H,T2L
    1c68:	3f 92       	push	r3
    1c6a:	2f 92       	push	r2
	pushw	T4H,T4L
    1c6c:	5f 92       	push	r5
    1c6e:	4f 92       	push	r4
	pushw	T6H,T6L
    1c70:	7f 92       	push	r7
    1c72:	6f 92       	push	r6
	pushw	T8H,T8L
    1c74:	9f 92       	push	r9
    1c76:	8f 92       	push	r8
	pushw	T10H,T10L
    1c78:	bf 92       	push	r11
    1c7a:	af 92       	push	r10
	pushw	AH,AL
    1c7c:	1f 93       	push	r17
    1c7e:	0f 93       	push	r16
	pushw	YH,YL
    1c80:	df 93       	push	r29
    1c82:	cf 93       	push	r28

	movw	T10L, EL			;T10 = array_bfly;
    1c84:	5c 01       	movw	r10, r24
	movw	YL, DL				;Y = array_output;
    1c86:	eb 01       	movw	r28, r22
	ldiw	ZH,ZL, tbl_bitrev		;Z = tbl_bitrev;
    1c88:	e6 ef       	ldi	r30, 0xF6	; 246
    1c8a:	f9 e1       	ldi	r31, 0x19	; 25
	clr	EH				;Zero
    1c8c:	99 27       	eor	r25, r25
#ifdef INPUT_IQ
	ldiw	AH,AL, FFT_N_128			;A = FFT_N; (plus/minus)
#else
	ldiw	AH,AL, FFT_N_128 / 2		;A = FFT_N / 2; (plus only)
    1c8e:	00 e4       	ldi	r16, 0x40	; 64
    1c90:	10 e0       	ldi	r17, 0x00	; 0
#endif
1:	lpmw	XH,XL, Z+			;X = *Z++;
    1c92:	a5 91       	lpm	r26, Z+
    1c94:	b5 91       	lpm	r27, Z+
	addw	XH,XL, T10H,T10L		;X += array_bfly;
    1c96:	aa 0d       	add	r26, r10
    1c98:	bb 1d       	adc	r27, r11
	ldw	BH,BL, X+			;B = *X++;
    1c9a:	2d 91       	ld	r18, X+
    1c9c:	3d 91       	ld	r19, X+
	ldw	CH,CL, X+			;C = *X++;
    1c9e:	4d 91       	ld	r20, X+
    1ca0:	5d 91       	ld	r21, X+
	FMULS16	T4H,T4L,T2H,T2L, BH,BL, BH,BL	;T4:T2 = B * B;
    1ca2:	b3 03       	fmuls	r19, r19
    1ca4:	20 01       	movw	r4, r0
    1ca6:	2a 03       	fmul	r18, r18
    1ca8:	10 01       	movw	r2, r0
    1caa:	49 1e       	adc	r4, r25
    1cac:	ba 03       	fmulsu	r19, r18
    1cae:	59 0a       	sbc	r5, r25
    1cb0:	30 0c       	add	r3, r0
    1cb2:	41 1c       	adc	r4, r1
    1cb4:	59 1e       	adc	r5, r25
    1cb6:	ba 03       	fmulsu	r19, r18
    1cb8:	59 0a       	sbc	r5, r25
    1cba:	30 0c       	add	r3, r0
    1cbc:	41 1c       	adc	r4, r1
    1cbe:	59 1e       	adc	r5, r25
	FMULS16	T8H,T8L,T6H,T6L, CH,CL, CH,CL	;T8:T6 = C * C;
    1cc0:	d5 03       	fmuls	r21, r21
    1cc2:	40 01       	movw	r8, r0
    1cc4:	4c 03       	fmul	r20, r20
    1cc6:	30 01       	movw	r6, r0
    1cc8:	89 1e       	adc	r8, r25
    1cca:	dc 03       	fmulsu	r21, r20
    1ccc:	99 0a       	sbc	r9, r25
    1cce:	70 0c       	add	r7, r0
    1cd0:	81 1c       	adc	r8, r1
    1cd2:	99 1e       	adc	r9, r25
    1cd4:	dc 03       	fmulsu	r21, r20
    1cd6:	99 0a       	sbc	r9, r25
    1cd8:	70 0c       	add	r7, r0
    1cda:	81 1c       	adc	r8, r1
    1cdc:	99 1e       	adc	r9, r25
	addd	T4H,T4L,T2H,T2L, T8H,T8L,T6H,T6L;T4:T2 += T8:T6;
    1cde:	26 0c       	add	r2, r6
    1ce0:	37 1c       	adc	r3, r7
    1ce2:	48 1c       	adc	r4, r8
    1ce4:	59 1c       	adc	r5, r9
	SQRT32					;B = sqrt(T4:T2);
    1ce6:	66 24       	eor	r6, r6
    1ce8:	77 24       	eor	r7, r7
    1cea:	88 24       	eor	r8, r8
    1cec:	99 24       	eor	r9, r9
    1cee:	21 e0       	ldi	r18, 0x01	; 1
    1cf0:	30 e0       	ldi	r19, 0x00	; 0
    1cf2:	44 27       	eor	r20, r20
    1cf4:	55 27       	eor	r21, r21
    1cf6:	70 e1       	ldi	r23, 0x10	; 16
    1cf8:	22 0c       	add	r2, r2
    1cfa:	33 1c       	adc	r3, r3
    1cfc:	44 1c       	adc	r4, r4
    1cfe:	55 1c       	adc	r5, r5
    1d00:	66 1c       	adc	r6, r6
    1d02:	77 1c       	adc	r7, r7
    1d04:	88 1c       	adc	r8, r8
    1d06:	99 1c       	adc	r9, r9
    1d08:	22 0c       	add	r2, r2
    1d0a:	33 1c       	adc	r3, r3
    1d0c:	44 1c       	adc	r4, r4
    1d0e:	55 1c       	adc	r5, r5
    1d10:	66 1c       	adc	r6, r6
    1d12:	77 1c       	adc	r7, r7
    1d14:	88 1c       	adc	r8, r8
    1d16:	99 1c       	adc	r9, r9
    1d18:	2a f4       	brpl	.+10     	; 0x1d24 <fft_output_128+0xbc>
    1d1a:	62 0e       	add	r6, r18
    1d1c:	73 1e       	adc	r7, r19
    1d1e:	84 1e       	adc	r8, r20
    1d20:	95 1e       	adc	r9, r21
    1d22:	04 c0       	rjmp	.+8      	; 0x1d2c <fft_output_128+0xc4>
    1d24:	62 1a       	sub	r6, r18
    1d26:	73 0a       	sbc	r7, r19
    1d28:	84 0a       	sbc	r8, r20
    1d2a:	95 0a       	sbc	r9, r21
    1d2c:	22 0f       	add	r18, r18
    1d2e:	33 1f       	adc	r19, r19
    1d30:	44 1f       	adc	r20, r20
    1d32:	28 7f       	andi	r18, 0xF8	; 248
    1d34:	25 60       	ori	r18, 0x05	; 5
    1d36:	97 fc       	sbrc	r9, 7
    1d38:	22 50       	subi	r18, 0x02	; 2
    1d3a:	7a 95       	dec	r23
    1d3c:	e9 f6       	brne	.-70     	; 0x1cf8 <fft_output_128+0x90>
    1d3e:	46 95       	lsr	r20
    1d40:	37 95       	ror	r19
    1d42:	27 95       	ror	r18
    1d44:	46 95       	lsr	r20
    1d46:	37 95       	ror	r19
    1d48:	27 95       	ror	r18
	stw	Y+, BH,BL			;*Y++ = B;
    1d4a:	29 93       	st	Y+, r18
    1d4c:	39 93       	st	Y+, r19
	subiw	AH,AL, 1			;while(--A)
    1d4e:	01 50       	subi	r16, 0x01	; 1
    1d50:	10 40       	sbci	r17, 0x00	; 0
	rjne	1b				;/
    1d52:	09 f0       	breq	.+2      	; 0x1d56 <fft_output_128+0xee>
    1d54:	9e cf       	rjmp	.-196    	; 0x1c92 <fft_output_128+0x2a>

	popw	YH,YL
    1d56:	cf 91       	pop	r28
    1d58:	df 91       	pop	r29
	popw	AH,AL
    1d5a:	0f 91       	pop	r16
    1d5c:	1f 91       	pop	r17
	popw	T10H,T10L
    1d5e:	af 90       	pop	r10
    1d60:	bf 90       	pop	r11
	popw	T8H,T8L
    1d62:	8f 90       	pop	r8
    1d64:	9f 90       	pop	r9
	popw	T6H,T6L
    1d66:	6f 90       	pop	r6
    1d68:	7f 90       	pop	r7
	popw	T4H,T4L
    1d6a:	4f 90       	pop	r4
    1d6c:	5f 90       	pop	r5
	popw	T2H,T2L
    1d6e:	2f 90       	pop	r2
    1d70:	3f 90       	pop	r3
	clr	r1
    1d72:	11 24       	eor	r1, r1
	ret
    1d74:	08 95       	ret

00001d76 <fmuls_f_128>:

;----------------------------------------------------------------------------;
.global fmuls_f_128
.func fmuls_f_128
fmuls_f_128:
	movw	CL, EL				;C = E;
    1d76:	ac 01       	movw	r20, r24
	clr	EH	;Zero
    1d78:	99 27       	eor	r25, r25
	FMULS16	ZH,ZL,XH,XL, CH,CL, DH,DL	;Z:X = C * D;
    1d7a:	d7 03       	fmuls	r21, r23
    1d7c:	f0 01       	movw	r30, r0
    1d7e:	4e 03       	fmul	r20, r22
    1d80:	d0 01       	movw	r26, r0
    1d82:	e9 1f       	adc	r30, r25
    1d84:	de 03       	fmulsu	r21, r22
    1d86:	f9 0b       	sbc	r31, r25
    1d88:	b0 0d       	add	r27, r0
    1d8a:	e1 1d       	adc	r30, r1
    1d8c:	f9 1f       	adc	r31, r25
    1d8e:	fc 03       	fmulsu	r23, r20
    1d90:	f9 0b       	sbc	r31, r25
    1d92:	b0 0d       	add	r27, r0
    1d94:	e1 1d       	adc	r30, r1
    1d96:	f9 1f       	adc	r31, r25
	movw	EL, ZL
    1d98:	cf 01       	movw	r24, r30
	clr	r1
    1d9a:	11 24       	eor	r1, r1
	ret
    1d9c:	08 95       	ret

00001d9e <tbl_window_256>:
    1d9e:	3d 0a       	sbc	r3, r29
    1da0:	41 0a       	sbc	r4, r17
    1da2:	4f 0a       	sbc	r4, r31
    1da4:	66 0a       	sbc	r6, r22
    1da6:	85 0a       	sbc	r8, r21
    1da8:	ae 0a       	sbc	r10, r30
    1daa:	e0 0a       	sbc	r14, r16
    1dac:	1b 0b       	sbc	r17, r27
    1dae:	5e 0b       	sbc	r21, r30
    1db0:	ab 0b       	sbc	r26, r27
    1db2:	01 0c       	add	r0, r1
    1db4:	5f 0c       	add	r5, r15
    1db6:	c6 0c       	add	r12, r6
    1db8:	36 0d       	add	r19, r6
    1dba:	ae 0d       	add	r26, r14
    1dbc:	2f 0e       	add	r2, r31
    1dbe:	b8 0e       	add	r11, r24
    1dc0:	4a 0f       	add	r20, r26
    1dc2:	e4 0f       	add	r30, r20
    1dc4:	86 10       	cpse	r8, r6
    1dc6:	31 11       	cpse	r19, r1
    1dc8:	e3 11       	cpse	r30, r3
    1dca:	9d 12       	cpse	r9, r29
    1dcc:	5f 13       	cpse	r21, r31
    1dce:	29 14       	cp	r2, r9
    1dd0:	fa 14       	cp	r15, r10
    1dd2:	d3 15       	cp	r29, r3
    1dd4:	b3 16       	cp	r11, r19
    1dd6:	9a 17       	cp	r25, r26
    1dd8:	88 18       	sub	r8, r8
    1dda:	7d 19       	sub	r23, r13
    1ddc:	79 1a       	sub	r7, r25
    1dde:	7c 1b       	sub	r23, r28
    1de0:	84 1c       	adc	r8, r4
    1de2:	93 1d       	adc	r25, r3
    1de4:	a9 1e       	adc	r10, r25
    1de6:	c4 1f       	adc	r28, r20
    1de8:	e4 20       	and	r14, r4
    1dea:	0b 22       	and	r0, r27
    1dec:	37 23       	and	r19, r23
    1dee:	68 24       	eor	r6, r8
    1df0:	9e 25       	eor	r25, r14
    1df2:	d9 26       	eor	r13, r25
    1df4:	18 28       	or	r1, r8
    1df6:	5c 29       	or	r21, r12
    1df8:	a5 2a       	or	r10, r21
    1dfa:	f1 2b       	or	r31, r17
    1dfc:	42 2d       	mov	r20, r2
    1dfe:	96 2e       	mov	r9, r22
    1e00:	ed 2f       	mov	r30, r29
    1e02:	48 31       	cpi	r20, 0x18	; 24
    1e04:	a6 32       	cpi	r26, 0x26	; 38
    1e06:	06 34       	cpi	r16, 0x46	; 70
    1e08:	6a 35       	cpi	r22, 0x5A	; 90
    1e0a:	cf 36       	cpi	r28, 0x6F	; 111
    1e0c:	37 38       	cpi	r19, 0x87	; 135
    1e0e:	a1 39       	cpi	r26, 0x91	; 145
    1e10:	0d 3b       	cpi	r16, 0xBD	; 189
    1e12:	7a 3c       	cpi	r23, 0xCA	; 202
    1e14:	e9 3d       	cpi	r30, 0xD9	; 217
    1e16:	58 3f       	cpi	r21, 0xF8	; 248
    1e18:	c9 40       	sbci	r28, 0x09	; 9
    1e1a:	3a 42       	sbci	r19, 0x2A	; 42
    1e1c:	ac 43       	sbci	r26, 0x3C	; 60
    1e1e:	1e 45       	sbci	r17, 0x5E	; 94
    1e20:	90 46       	sbci	r25, 0x60	; 96
    1e22:	01 48       	sbci	r16, 0x81	; 129
    1e24:	72 49       	sbci	r23, 0x92	; 146
    1e26:	e3 4a       	sbci	r30, 0xA3	; 163
    1e28:	53 4c       	sbci	r21, 0xC3	; 195
    1e2a:	c1 4d       	sbci	r28, 0xD1	; 209
    1e2c:	2f 4f       	sbci	r18, 0xFF	; 255
    1e2e:	9a 50       	subi	r25, 0x0A	; 10
    1e30:	04 52       	subi	r16, 0x24	; 36
    1e32:	6c 53       	subi	r22, 0x3C	; 60
    1e34:	d2 54       	subi	r29, 0x42	; 66
    1e36:	35 56       	subi	r19, 0x65	; 101
    1e38:	96 57       	subi	r25, 0x76	; 118
    1e3a:	f4 58       	subi	r31, 0x84	; 132
    1e3c:	4e 5a       	subi	r20, 0xAE	; 174
    1e3e:	a6 5b       	subi	r26, 0xB6	; 182
    1e40:	fa 5c       	subi	r31, 0xCA	; 202
    1e42:	4a 5e       	subi	r20, 0xEA	; 234
    1e44:	97 5f       	subi	r25, 0xF7	; 247
    1e46:	df 60       	ori	r29, 0x0F	; 15
    1e48:	23 62       	ori	r18, 0x23	; 35
    1e4a:	63 63       	ori	r22, 0x33	; 51
    1e4c:	9e 64       	ori	r25, 0x4E	; 78
    1e4e:	d4 65       	ori	r29, 0x54	; 84
    1e50:	05 67       	ori	r16, 0x75	; 117
    1e52:	31 68       	ori	r19, 0x81	; 129
    1e54:	57 69       	ori	r21, 0x97	; 151
    1e56:	78 6a       	ori	r23, 0xA8	; 168
    1e58:	93 6b       	ori	r25, 0xB3	; 179
    1e5a:	a8 6c       	ori	r26, 0xC8	; 200
    1e5c:	b7 6d       	ori	r27, 0xD7	; 215
    1e5e:	c0 6e       	ori	r28, 0xE0	; 224
    1e60:	c2 6f       	ori	r28, 0xF2	; 242
    1e62:	be 70       	andi	r27, 0x0E	; 14
    1e64:	b3 71       	andi	r27, 0x13	; 19
    1e66:	a1 72       	andi	r26, 0x21	; 33
    1e68:	88 73       	andi	r24, 0x38	; 56
    1e6a:	68 74       	andi	r22, 0x48	; 72
    1e6c:	41 75       	andi	r20, 0x51	; 81
    1e6e:	12 76       	andi	r17, 0x62	; 98
    1e70:	dc 76       	andi	r29, 0x6C	; 108
    1e72:	9e 77       	andi	r25, 0x7E	; 126
    1e74:	58 78       	andi	r21, 0x88	; 136
    1e76:	0b 79       	andi	r16, 0x9B	; 155
    1e78:	b5 79       	andi	r27, 0x95	; 149
    1e7a:	57 7a       	andi	r21, 0xA7	; 167
    1e7c:	f1 7a       	andi	r31, 0xA1	; 161
    1e7e:	83 7b       	andi	r24, 0xB3	; 179
    1e80:	0c 7c       	andi	r16, 0xCC	; 204
    1e82:	8d 7c       	andi	r24, 0xCD	; 205
    1e84:	06 7d       	andi	r16, 0xD6	; 214
    1e86:	75 7d       	andi	r23, 0xD5	; 213
    1e88:	dc 7d       	andi	r29, 0xDC	; 220
    1e8a:	3b 7e       	andi	r19, 0xEB	; 235
    1e8c:	90 7e       	andi	r25, 0xE0	; 224
    1e8e:	dd 7e       	andi	r29, 0xED	; 237
    1e90:	21 7f       	andi	r18, 0xF1	; 241
    1e92:	5b 7f       	andi	r21, 0xFB	; 251
    1e94:	8d 7f       	andi	r24, 0xFD	; 253
    1e96:	b6 7f       	andi	r27, 0xF6	; 246
    1e98:	d6 7f       	andi	r29, 0xF6	; 246
    1e9a:	ec 7f       	andi	r30, 0xFC	; 252
    1e9c:	fa 7f       	andi	r31, 0xFA	; 250
    1e9e:	fe 7f       	andi	r31, 0xFE	; 254
    1ea0:	fa 7f       	andi	r31, 0xFA	; 250
    1ea2:	ec 7f       	andi	r30, 0xFC	; 252
    1ea4:	d6 7f       	andi	r29, 0xF6	; 246
    1ea6:	b6 7f       	andi	r27, 0xF6	; 246
    1ea8:	8d 7f       	andi	r24, 0xFD	; 253
    1eaa:	5b 7f       	andi	r21, 0xFB	; 251
    1eac:	21 7f       	andi	r18, 0xF1	; 241
    1eae:	dd 7e       	andi	r29, 0xED	; 237
    1eb0:	90 7e       	andi	r25, 0xE0	; 224
    1eb2:	3b 7e       	andi	r19, 0xEB	; 235
    1eb4:	dd 7d       	andi	r29, 0xDD	; 221
    1eb6:	75 7d       	andi	r23, 0xD5	; 213
    1eb8:	06 7d       	andi	r16, 0xD6	; 214
    1eba:	8d 7c       	andi	r24, 0xCD	; 205
    1ebc:	0d 7c       	andi	r16, 0xCD	; 205
    1ebe:	83 7b       	andi	r24, 0xB3	; 179
    1ec0:	f1 7a       	andi	r31, 0xA1	; 161
    1ec2:	57 7a       	andi	r21, 0xA7	; 167
    1ec4:	b5 79       	andi	r27, 0x95	; 149
    1ec6:	0b 79       	andi	r16, 0x9B	; 155
    1ec8:	58 78       	andi	r21, 0x88	; 136
    1eca:	9e 77       	andi	r25, 0x7E	; 126
    1ecc:	dc 76       	andi	r29, 0x6C	; 108
    1ece:	12 76       	andi	r17, 0x62	; 98
    1ed0:	41 75       	andi	r20, 0x51	; 81
    1ed2:	68 74       	andi	r22, 0x48	; 72
    1ed4:	88 73       	andi	r24, 0x38	; 56
    1ed6:	a1 72       	andi	r26, 0x21	; 33
    1ed8:	b3 71       	andi	r27, 0x13	; 19
    1eda:	be 70       	andi	r27, 0x0E	; 14
    1edc:	c2 6f       	ori	r28, 0xF2	; 242
    1ede:	c0 6e       	ori	r28, 0xE0	; 224
    1ee0:	b7 6d       	ori	r27, 0xD7	; 215
    1ee2:	a8 6c       	ori	r26, 0xC8	; 200
    1ee4:	93 6b       	ori	r25, 0xB3	; 179
    1ee6:	78 6a       	ori	r23, 0xA8	; 168
    1ee8:	57 69       	ori	r21, 0x97	; 151
    1eea:	31 68       	ori	r19, 0x81	; 129
    1eec:	05 67       	ori	r16, 0x75	; 117
    1eee:	d4 65       	ori	r29, 0x54	; 84
    1ef0:	9e 64       	ori	r25, 0x4E	; 78
    1ef2:	63 63       	ori	r22, 0x33	; 51
    1ef4:	23 62       	ori	r18, 0x23	; 35
    1ef6:	df 60       	ori	r29, 0x0F	; 15
    1ef8:	97 5f       	subi	r25, 0xF7	; 247
    1efa:	4a 5e       	subi	r20, 0xEA	; 234
    1efc:	fa 5c       	subi	r31, 0xCA	; 202
    1efe:	a6 5b       	subi	r26, 0xB6	; 182
    1f00:	4e 5a       	subi	r20, 0xAE	; 174
    1f02:	f4 58       	subi	r31, 0x84	; 132
    1f04:	96 57       	subi	r25, 0x76	; 118
    1f06:	35 56       	subi	r19, 0x65	; 101
    1f08:	d2 54       	subi	r29, 0x42	; 66
    1f0a:	6c 53       	subi	r22, 0x3C	; 60
    1f0c:	04 52       	subi	r16, 0x24	; 36
    1f0e:	9a 50       	subi	r25, 0x0A	; 10
    1f10:	2f 4f       	sbci	r18, 0xFF	; 255
    1f12:	c1 4d       	sbci	r28, 0xD1	; 209
    1f14:	53 4c       	sbci	r21, 0xC3	; 195
    1f16:	e3 4a       	sbci	r30, 0xA3	; 163
    1f18:	73 49       	sbci	r23, 0x93	; 147
    1f1a:	01 48       	sbci	r16, 0x81	; 129
    1f1c:	90 46       	sbci	r25, 0x60	; 96
    1f1e:	1e 45       	sbci	r17, 0x5E	; 94
    1f20:	ac 43       	sbci	r26, 0x3C	; 60
    1f22:	3a 42       	sbci	r19, 0x2A	; 42
    1f24:	c9 40       	sbci	r28, 0x09	; 9
    1f26:	58 3f       	cpi	r21, 0xF8	; 248
    1f28:	e9 3d       	cpi	r30, 0xD9	; 217
    1f2a:	7a 3c       	cpi	r23, 0xCA	; 202
    1f2c:	0d 3b       	cpi	r16, 0xBD	; 189
    1f2e:	a1 39       	cpi	r26, 0x91	; 145
    1f30:	37 38       	cpi	r19, 0x87	; 135
    1f32:	cf 36       	cpi	r28, 0x6F	; 111
    1f34:	6a 35       	cpi	r22, 0x5A	; 90
    1f36:	06 34       	cpi	r16, 0x46	; 70
    1f38:	a6 32       	cpi	r26, 0x26	; 38
    1f3a:	48 31       	cpi	r20, 0x18	; 24
    1f3c:	ed 2f       	mov	r30, r29
    1f3e:	96 2e       	mov	r9, r22
    1f40:	42 2d       	mov	r20, r2
    1f42:	f1 2b       	or	r31, r17
    1f44:	a5 2a       	or	r10, r21
    1f46:	5c 29       	or	r21, r12
    1f48:	18 28       	or	r1, r8
    1f4a:	d9 26       	eor	r13, r25
    1f4c:	9e 25       	eor	r25, r14
    1f4e:	68 24       	eor	r6, r8
    1f50:	37 23       	and	r19, r23
    1f52:	0b 22       	and	r0, r27
    1f54:	e4 20       	and	r14, r4
    1f56:	c4 1f       	adc	r28, r20
    1f58:	a9 1e       	adc	r10, r25
    1f5a:	93 1d       	adc	r25, r3
    1f5c:	84 1c       	adc	r8, r4
    1f5e:	7c 1b       	sub	r23, r28
    1f60:	79 1a       	sub	r7, r25
    1f62:	7e 19       	sub	r23, r14
    1f64:	88 18       	sub	r8, r8
    1f66:	9a 17       	cp	r25, r26
    1f68:	b3 16       	cp	r11, r19
    1f6a:	d3 15       	cp	r29, r3
    1f6c:	fa 14       	cp	r15, r10
    1f6e:	29 14       	cp	r2, r9
    1f70:	5f 13       	cpse	r21, r31
    1f72:	9d 12       	cpse	r9, r29
    1f74:	e3 11       	cpse	r30, r3
    1f76:	31 11       	cpse	r19, r1
    1f78:	86 10       	cpse	r8, r6
    1f7a:	e4 0f       	add	r30, r20
    1f7c:	4a 0f       	add	r20, r26
    1f7e:	b8 0e       	add	r11, r24
    1f80:	2f 0e       	add	r2, r31
    1f82:	ae 0d       	add	r26, r14
    1f84:	36 0d       	add	r19, r6
    1f86:	c6 0c       	add	r12, r6
    1f88:	5f 0c       	add	r5, r15
    1f8a:	01 0c       	add	r0, r1
    1f8c:	ab 0b       	sbc	r26, r27
    1f8e:	5e 0b       	sbc	r21, r30
    1f90:	1b 0b       	sbc	r17, r27
    1f92:	e0 0a       	sbc	r14, r16
    1f94:	ae 0a       	sbc	r10, r30
    1f96:	85 0a       	sbc	r8, r21
    1f98:	66 0a       	sbc	r6, r22
    1f9a:	4f 0a       	sbc	r4, r31
    1f9c:	41 0a       	sbc	r4, r17

00001f9e <tbl_cos_sin>:
    1f9e:	ff 7f       	andi	r31, 0xFF	; 255
    1fa0:	00 00       	nop
    1fa2:	f5 7f       	andi	r31, 0xF5	; 245
    1fa4:	24 03       	mulsu	r18, r20
    1fa6:	d7 7f       	andi	r29, 0xF7	; 247
    1fa8:	47 06       	cpc	r4, r23
    1faa:	a6 7f       	andi	r26, 0xF6	; 246
    1fac:	6a 09       	sbc	r22, r10
    1fae:	61 7f       	andi	r22, 0xF1	; 241
    1fb0:	8b 0c       	add	r8, r11
    1fb2:	08 7f       	andi	r16, 0xF8	; 248
    1fb4:	ab 0f       	add	r26, r27
    1fb6:	9c 7e       	andi	r25, 0xEC	; 236
    1fb8:	c7 12       	cpse	r12, r23
    1fba:	1c 7e       	andi	r17, 0xEC	; 236
    1fbc:	e1 15       	cp	r30, r1
    1fbe:	89 7d       	andi	r24, 0xD9	; 217
    1fc0:	f8 18       	sub	r15, r8
    1fc2:	e2 7c       	andi	r30, 0xC2	; 194
    1fc4:	0b 1c       	adc	r0, r11
    1fc6:	29 7c       	andi	r18, 0xC9	; 201
    1fc8:	19 1f       	adc	r17, r25
    1fca:	5c 7b       	andi	r21, 0xBC	; 188
    1fcc:	23 22       	and	r2, r19
    1fce:	7c 7a       	andi	r23, 0xAC	; 172
    1fd0:	27 25       	eor	r18, r7
    1fd2:	89 79       	andi	r24, 0x99	; 153
    1fd4:	26 28       	or	r2, r6
    1fd6:	83 78       	andi	r24, 0x83	; 131
    1fd8:	1e 2b       	or	r17, r30
    1fda:	6b 77       	andi	r22, 0x7B	; 123
    1fdc:	10 2e       	mov	r1, r16
    1fde:	40 76       	andi	r20, 0x60	; 96
    1fe0:	fb 30       	cpi	r31, 0x0B	; 11
    1fe2:	03 75       	andi	r16, 0x53	; 83
    1fe4:	de 33       	cpi	r29, 0x3E	; 62
    1fe6:	b5 73       	andi	r27, 0x35	; 53
    1fe8:	b9 36       	cpi	r27, 0x69	; 105
    1fea:	54 72       	andi	r21, 0x24	; 36
    1fec:	8c 39       	cpi	r24, 0x9C	; 156
    1fee:	e1 70       	andi	r30, 0x01	; 1
    1ff0:	56 3c       	cpi	r21, 0xC6	; 198
    1ff2:	5e 6f       	ori	r21, 0xFE	; 254
    1ff4:	16 3f       	cpi	r17, 0xF6	; 246
    1ff6:	c9 6d       	ori	r28, 0xD9	; 217
    1ff8:	cd 41       	sbci	r28, 0x1D	; 29
    1ffa:	23 6c       	ori	r18, 0xC3	; 195
    1ffc:	7a 44       	sbci	r23, 0x4A	; 74
    1ffe:	6c 6a       	ori	r22, 0xAC	; 172
    2000:	1c 47       	sbci	r17, 0x7C	; 124
    2002:	a5 68       	ori	r26, 0x85	; 133
    2004:	b3 49       	sbci	r27, 0x93	; 147
    2006:	ce 66       	ori	r28, 0x6E	; 110
    2008:	3f 4c       	sbci	r19, 0xCF	; 207
    200a:	e7 64       	ori	r30, 0x47	; 71
    200c:	bf 4e       	sbci	r27, 0xEF	; 239
    200e:	f1 62       	ori	r31, 0x21	; 33
    2010:	33 51       	subi	r19, 0x13	; 19
    2012:	eb 60       	ori	r30, 0x0B	; 11
    2014:	9a 53       	subi	r25, 0x3A	; 58
    2016:	d6 5e       	subi	r29, 0xE6	; 230
    2018:	f4 55       	subi	r31, 0x54	; 84
    201a:	b3 5c       	subi	r27, 0xC3	; 195
    201c:	42 58       	subi	r20, 0x82	; 130
    201e:	81 5a       	subi	r24, 0xA1	; 161
    2020:	81 5a       	subi	r24, 0xA1	; 161
    2022:	42 58       	subi	r20, 0x82	; 130
    2024:	b3 5c       	subi	r27, 0xC3	; 195
    2026:	f4 55       	subi	r31, 0x54	; 84
    2028:	d6 5e       	subi	r29, 0xE6	; 230
    202a:	9a 53       	subi	r25, 0x3A	; 58
    202c:	eb 60       	ori	r30, 0x0B	; 11
    202e:	33 51       	subi	r19, 0x13	; 19
    2030:	f1 62       	ori	r31, 0x21	; 33
    2032:	bf 4e       	sbci	r27, 0xEF	; 239
    2034:	e7 64       	ori	r30, 0x47	; 71
    2036:	3f 4c       	sbci	r19, 0xCF	; 207
    2038:	ce 66       	ori	r28, 0x6E	; 110
    203a:	b3 49       	sbci	r27, 0x93	; 147
    203c:	a5 68       	ori	r26, 0x85	; 133
    203e:	1c 47       	sbci	r17, 0x7C	; 124
    2040:	6c 6a       	ori	r22, 0xAC	; 172
    2042:	7a 44       	sbci	r23, 0x4A	; 74
    2044:	23 6c       	ori	r18, 0xC3	; 195
    2046:	cd 41       	sbci	r28, 0x1D	; 29
    2048:	c9 6d       	ori	r28, 0xD9	; 217
    204a:	16 3f       	cpi	r17, 0xF6	; 246
    204c:	5e 6f       	ori	r21, 0xFE	; 254
    204e:	56 3c       	cpi	r21, 0xC6	; 198
    2050:	e1 70       	andi	r30, 0x01	; 1
    2052:	8c 39       	cpi	r24, 0x9C	; 156
    2054:	54 72       	andi	r21, 0x24	; 36
    2056:	b9 36       	cpi	r27, 0x69	; 105
    2058:	b5 73       	andi	r27, 0x35	; 53
    205a:	de 33       	cpi	r29, 0x3E	; 62
    205c:	03 75       	andi	r16, 0x53	; 83
    205e:	fb 30       	cpi	r31, 0x0B	; 11
    2060:	40 76       	andi	r20, 0x60	; 96
    2062:	10 2e       	mov	r1, r16
    2064:	6b 77       	andi	r22, 0x7B	; 123
    2066:	1e 2b       	or	r17, r30
    2068:	83 78       	andi	r24, 0x83	; 131
    206a:	26 28       	or	r2, r6
    206c:	89 79       	andi	r24, 0x99	; 153
    206e:	27 25       	eor	r18, r7
    2070:	7c 7a       	andi	r23, 0xAC	; 172
    2072:	23 22       	and	r2, r19
    2074:	5c 7b       	andi	r21, 0xBC	; 188
    2076:	19 1f       	adc	r17, r25
    2078:	29 7c       	andi	r18, 0xC9	; 201
    207a:	0b 1c       	adc	r0, r11
    207c:	e2 7c       	andi	r30, 0xC2	; 194
    207e:	f8 18       	sub	r15, r8
    2080:	89 7d       	andi	r24, 0xD9	; 217
    2082:	e1 15       	cp	r30, r1
    2084:	1c 7e       	andi	r17, 0xEC	; 236
    2086:	c7 12       	cpse	r12, r23
    2088:	9c 7e       	andi	r25, 0xEC	; 236
    208a:	ab 0f       	add	r26, r27
    208c:	08 7f       	andi	r16, 0xF8	; 248
    208e:	8b 0c       	add	r8, r11
    2090:	61 7f       	andi	r22, 0xF1	; 241
    2092:	6a 09       	sbc	r22, r10
    2094:	a6 7f       	andi	r26, 0xF6	; 246
    2096:	47 06       	cpc	r4, r23
    2098:	d7 7f       	andi	r29, 0xF7	; 247
    209a:	24 03       	mulsu	r18, r20
    209c:	f5 7f       	andi	r31, 0xF5	; 245
    209e:	00 00       	nop
    20a0:	fe 7f       	andi	r31, 0xFE	; 254
    20a2:	dc fc       	.word	0xfcdc	; ????
    20a4:	f5 7f       	andi	r31, 0xF5	; 245
    20a6:	b9 f9       	.word	0xf9b9	; ????
    20a8:	d7 7f       	andi	r29, 0xF7	; 247
    20aa:	96 f6       	brtc	.-92     	; 0x2050 <tbl_cos_sin+0xb2>
    20ac:	a6 7f       	andi	r26, 0xF6	; 246
    20ae:	75 f3       	brhs	.-36     	; 0x208c <tbl_cos_sin+0xee>
    20b0:	61 7f       	andi	r22, 0xF1	; 241
    20b2:	56 f0       	brts	.+20     	; 0x20c8 <tbl_cos_sin+0x12a>
    20b4:	08 7f       	andi	r16, 0xF8	; 248
    20b6:	39 ed       	ldi	r19, 0xD9	; 217
    20b8:	9c 7e       	andi	r25, 0xEC	; 236
    20ba:	1f ea       	ldi	r17, 0xAF	; 175
    20bc:	1c 7e       	andi	r17, 0xEC	; 236
    20be:	08 e7       	ldi	r16, 0x78	; 120
    20c0:	89 7d       	andi	r24, 0xD9	; 217
    20c2:	f5 e3       	ldi	r31, 0x35	; 53
    20c4:	e2 7c       	andi	r30, 0xC2	; 194
    20c6:	e7 e0       	ldi	r30, 0x07	; 7
    20c8:	29 7c       	andi	r18, 0xC9	; 201
    20ca:	dd dd       	rcall	.-1094   	; 0x1c86 <fft_output_128+0x1e>
    20cc:	5c 7b       	andi	r21, 0xBC	; 188
    20ce:	d9 da       	rcall	.-2638   	; 0x1682 <fft_execute_1024+0x156>
    20d0:	7c 7a       	andi	r23, 0xAC	; 172
    20d2:	da d7       	rcall	.+4020   	; 0x3088 <fft_execute_512+0x64>
    20d4:	89 79       	andi	r24, 0x99	; 153
    20d6:	e2 d4       	rcall	.+2500   	; 0x2a9c <tbl_cos_sin+0xd6>
    20d8:	83 78       	andi	r24, 0x83	; 131
    20da:	f0 d1       	rcall	.+992    	; 0x24bc <fft_output_256+0x2c>
    20dc:	6b 77       	andi	r22, 0x7B	; 123
    20de:	05 cf       	rjmp	.-502    	; 0x1eea <tbl_window_256+0x14c>
    20e0:	40 76       	andi	r20, 0x60	; 96
    20e2:	22 cc       	rjmp	.-1980   	; 0x1928 <tbl_cos_sin+0x32>
    20e4:	03 75       	andi	r16, 0x53	; 83
    20e6:	47 c9       	rjmp	.-3442   	; 0x1376 <tbl_bitrev+0x2a8>
    20e8:	b5 73       	andi	r27, 0x35	; 53
    20ea:	74 c6       	rjmp	.+3304   	; 0x2dd4 <tbl_bitrev+0xe>
    20ec:	54 72       	andi	r21, 0x24	; 36
    20ee:	aa c3       	rjmp	.+1876   	; 0x2844 <tbl_window_512+0x27e>
    20f0:	e1 70       	andi	r30, 0x01	; 1
    20f2:	ea c0       	rjmp	.+468    	; 0x22c8 <fft_input_256+0x2a>
    20f4:	5e 6f       	ori	r21, 0xFE	; 254
    20f6:	33 be       	out	0x33, r3	; 51
    20f8:	c9 6d       	ori	r28, 0xD9	; 217
    20fa:	86 bb       	out	0x16, r24	; 22
    20fc:	23 6c       	ori	r18, 0xC3	; 195
    20fe:	e4 b8       	out	0x04, r14	; 4
    2100:	6c 6a       	ori	r22, 0xAC	; 172
    2102:	4d b6       	in	r4, 0x3d	; 61
    2104:	a5 68       	ori	r26, 0x85	; 133
    2106:	c1 b3       	in	r28, 0x11	; 17
    2108:	ce 66       	ori	r28, 0x6E	; 110
    210a:	41 b1       	in	r20, 0x01	; 1
    210c:	e7 64       	ori	r30, 0x47	; 71
    210e:	cd ae       	std	Y+61, r12	; 0x3d
    2110:	f1 62       	ori	r31, 0x21	; 33
    2112:	66 ac       	ldd	r6, Z+62	; 0x3e
    2114:	eb 60       	ori	r30, 0x0B	; 11
    2116:	0c aa       	std	Y+52, r0	; 0x34
    2118:	d6 5e       	subi	r29, 0xE6	; 230
    211a:	be a7       	std	Y+46, r27	; 0x2e
    211c:	b3 5c       	subi	r27, 0xC3	; 195
    211e:	7f a5       	ldd	r23, Y+47	; 0x2f
    2120:	81 5a       	subi	r24, 0xA1	; 161
    2122:	4d a3       	std	Y+37, r20	; 0x25
    2124:	42 58       	subi	r20, 0x82	; 130
    2126:	2a a1       	ldd	r18, Y+34	; 0x22
    2128:	f5 55       	subi	r31, 0x55	; 85
    212a:	15 9f       	mul	r17, r21
    212c:	9a 53       	subi	r25, 0x3A	; 58
    212e:	0f 9d       	mul	r16, r15
    2130:	33 51       	subi	r19, 0x13	; 19
    2132:	19 9b       	sbis	0x03, 1	; 3
    2134:	bf 4e       	sbci	r27, 0xEF	; 239
    2136:	32 99       	sbic	0x06, 2	; 6
    2138:	3f 4c       	sbci	r19, 0xCF	; 207
    213a:	5b 97       	sbiw	r26, 0x1b	; 27
    213c:	b3 49       	sbci	r27, 0x93	; 147
    213e:	94 95       	.word	0x9594	; ????
    2140:	1c 47       	sbci	r17, 0x7C	; 124
    2142:	dd 93       	st	X+, r29
    2144:	7a 44       	sbci	r23, 0x4A	; 74
    2146:	37 92       	lat	Z, r3
    2148:	cd 41       	sbci	r28, 0x1D	; 29
    214a:	a2 90       	ld	r10, -Z
    214c:	16 3f       	cpi	r17, 0xF6	; 246
    214e:	1f 8f       	std	Y+31, r17	; 0x1f
    2150:	56 3c       	cpi	r21, 0xC6	; 198
    2152:	ac 8d       	ldd	r26, Y+28	; 0x1c
    2154:	8c 39       	cpi	r24, 0x9C	; 156
    2156:	4c 8c       	ldd	r4, Y+28	; 0x1c
    2158:	b9 36       	cpi	r27, 0x69	; 105
    215a:	fd 8a       	std	Y+21, r15	; 0x15
    215c:	de 33       	cpi	r29, 0x3E	; 62
    215e:	c0 89       	ldd	r28, Z+16	; 0x10
    2160:	fb 30       	cpi	r31, 0x0B	; 11
    2162:	95 88       	ldd	r9, Z+21	; 0x15
    2164:	10 2e       	mov	r1, r16
    2166:	7d 87       	std	Y+13, r23	; 0x0d
    2168:	1e 2b       	or	r17, r30
    216a:	77 86       	std	Z+15, r7	; 0x0f
    216c:	26 28       	or	r2, r6
    216e:	84 85       	ldd	r24, Z+12	; 0x0c
    2170:	27 25       	eor	r18, r7
    2172:	a4 84       	ldd	r10, Z+12	; 0x0c
    2174:	23 22       	and	r2, r19
    2176:	d8 83       	st	Y, r29
    2178:	19 1f       	adc	r17, r25
    217a:	1e 83       	std	Y+6, r17	; 0x06
    217c:	0b 1c       	adc	r0, r11
    217e:	77 82       	std	Z+7, r7	; 0x07
    2180:	f8 18       	sub	r15, r8
    2182:	e4 81       	ldd	r30, Z+4	; 0x04
    2184:	e1 15       	cp	r30, r1
    2186:	64 81       	ldd	r22, Z+4	; 0x04
    2188:	c7 12       	cpse	r12, r23
    218a:	f8 80       	ld	r15, Y
    218c:	ab 0f       	add	r26, r27
    218e:	9f 80       	ldd	r9, Y+7	; 0x07
    2190:	8b 0c       	add	r8, r11
    2192:	5a 80       	ldd	r5, Y+2	; 0x02
    2194:	6a 09       	sbc	r22, r10
    2196:	29 80       	ldd	r2, Y+1	; 0x01
    2198:	47 06       	cpc	r4, r23
    219a:	0b 80       	ldd	r0, Y+3	; 0x03
    219c:	24 03       	mulsu	r18, r20

0000219e <tbl_bitrev>:
    219e:	00 00       	nop
    21a0:	00 02       	muls	r16, r16
    21a2:	00 01       	movw	r0, r0
    21a4:	00 03       	mulsu	r16, r16
    21a6:	80 00       	.word	0x0080	; ????
    21a8:	80 02       	muls	r24, r16
    21aa:	80 01       	movw	r16, r0
    21ac:	80 03       	fmuls	r16, r16
    21ae:	40 00       	.word	0x0040	; ????
    21b0:	40 02       	muls	r20, r16
    21b2:	40 01       	movw	r8, r0
    21b4:	40 03       	mulsu	r20, r16
    21b6:	c0 00       	.word	0x00c0	; ????
    21b8:	c0 02       	muls	r28, r16
    21ba:	c0 01       	movw	r24, r0
    21bc:	c0 03       	fmuls	r20, r16
    21be:	20 00       	.word	0x0020	; ????
    21c0:	20 02       	muls	r18, r16
    21c2:	20 01       	movw	r4, r0
    21c4:	20 03       	mulsu	r18, r16
    21c6:	a0 00       	.word	0x00a0	; ????
    21c8:	a0 02       	muls	r26, r16
    21ca:	a0 01       	movw	r20, r0
    21cc:	a0 03       	fmuls	r18, r16
    21ce:	60 00       	.word	0x0060	; ????
    21d0:	60 02       	muls	r22, r16
    21d2:	60 01       	movw	r12, r0
    21d4:	60 03       	mulsu	r22, r16
    21d6:	e0 00       	.word	0x00e0	; ????
    21d8:	e0 02       	muls	r30, r16
    21da:	e0 01       	movw	r28, r0
    21dc:	e0 03       	fmuls	r22, r16
    21de:	10 00       	.word	0x0010	; ????
    21e0:	10 02       	muls	r17, r16
    21e2:	10 01       	movw	r2, r0
    21e4:	10 03       	mulsu	r17, r16
    21e6:	90 00       	.word	0x0090	; ????
    21e8:	90 02       	muls	r25, r16
    21ea:	90 01       	movw	r18, r0
    21ec:	90 03       	fmuls	r17, r16
    21ee:	50 00       	.word	0x0050	; ????
    21f0:	50 02       	muls	r21, r16
    21f2:	50 01       	movw	r10, r0
    21f4:	50 03       	mulsu	r21, r16
    21f6:	d0 00       	.word	0x00d0	; ????
    21f8:	d0 02       	muls	r29, r16
    21fa:	d0 01       	movw	r26, r0
    21fc:	d0 03       	fmuls	r21, r16
    21fe:	30 00       	.word	0x0030	; ????
    2200:	30 02       	muls	r19, r16
    2202:	30 01       	movw	r6, r0
    2204:	30 03       	mulsu	r19, r16
    2206:	b0 00       	.word	0x00b0	; ????
    2208:	b0 02       	muls	r27, r16
    220a:	b0 01       	movw	r22, r0
    220c:	b0 03       	fmuls	r19, r16
    220e:	70 00       	.word	0x0070	; ????
    2210:	70 02       	muls	r23, r16
    2212:	70 01       	movw	r14, r0
    2214:	70 03       	mulsu	r23, r16
    2216:	f0 00       	.word	0x00f0	; ????
    2218:	f0 02       	muls	r31, r16
    221a:	f0 01       	movw	r30, r0
    221c:	f0 03       	fmuls	r23, r16
    221e:	08 00       	.word	0x0008	; ????
    2220:	08 02       	muls	r16, r24
    2222:	08 01       	movw	r0, r16
    2224:	08 03       	fmul	r16, r16
    2226:	88 00       	.word	0x0088	; ????
    2228:	88 02       	muls	r24, r24
    222a:	88 01       	movw	r16, r16
    222c:	88 03       	fmulsu	r16, r16
    222e:	48 00       	.word	0x0048	; ????
    2230:	48 02       	muls	r20, r24
    2232:	48 01       	movw	r8, r16
    2234:	48 03       	fmul	r20, r16
    2236:	c8 00       	.word	0x00c8	; ????
    2238:	c8 02       	muls	r28, r24
    223a:	c8 01       	movw	r24, r16
    223c:	c8 03       	fmulsu	r20, r16
    223e:	28 00       	.word	0x0028	; ????
    2240:	28 02       	muls	r18, r24
    2242:	28 01       	movw	r4, r16
    2244:	28 03       	fmul	r18, r16
    2246:	a8 00       	.word	0x00a8	; ????
    2248:	a8 02       	muls	r26, r24
    224a:	a8 01       	movw	r20, r16
    224c:	a8 03       	fmulsu	r18, r16
    224e:	68 00       	.word	0x0068	; ????
    2250:	68 02       	muls	r22, r24
    2252:	68 01       	movw	r12, r16
    2254:	68 03       	fmul	r22, r16
    2256:	e8 00       	.word	0x00e8	; ????
    2258:	e8 02       	muls	r30, r24
    225a:	e8 01       	movw	r28, r16
    225c:	e8 03       	fmulsu	r22, r16
    225e:	18 00       	.word	0x0018	; ????
    2260:	18 02       	muls	r17, r24
    2262:	18 01       	movw	r2, r16
    2264:	18 03       	fmul	r17, r16
    2266:	98 00       	.word	0x0098	; ????
    2268:	98 02       	muls	r25, r24
    226a:	98 01       	movw	r18, r16
    226c:	98 03       	fmulsu	r17, r16
    226e:	58 00       	.word	0x0058	; ????
    2270:	58 02       	muls	r21, r24
    2272:	58 01       	movw	r10, r16
    2274:	58 03       	fmul	r21, r16
    2276:	d8 00       	.word	0x00d8	; ????
    2278:	d8 02       	muls	r29, r24
    227a:	d8 01       	movw	r26, r16
    227c:	d8 03       	fmulsu	r21, r16
    227e:	38 00       	.word	0x0038	; ????
    2280:	38 02       	muls	r19, r24
    2282:	38 01       	movw	r6, r16
    2284:	38 03       	fmul	r19, r16
    2286:	b8 00       	.word	0x00b8	; ????
    2288:	b8 02       	muls	r27, r24
    228a:	b8 01       	movw	r22, r16
    228c:	b8 03       	fmulsu	r19, r16
    228e:	78 00       	.word	0x0078	; ????
    2290:	78 02       	muls	r23, r24
    2292:	78 01       	movw	r14, r16
    2294:	78 03       	fmul	r23, r16
    2296:	f8 00       	.word	0x00f8	; ????
    2298:	f8 02       	muls	r31, r24
    229a:	f8 01       	movw	r30, r16
    229c:	f8 03       	fmulsu	r23, r16

0000229e <fft_input_256>:
;----------------------------------------------------------------------------;
#ifndef INPUT_NOISE
.global fft_input_256
.func fft_input_256
fft_input_256:
	pushw	T2H,T2L
    229e:	3f 92       	push	r3
    22a0:	2f 92       	push	r2
	pushw	AH,AL
    22a2:	1f 93       	push	r17
    22a4:	0f 93       	push	r16
	pushw	YH,YL
    22a6:	df 93       	push	r29
    22a8:	cf 93       	push	r28

	movw	XL, EL				;X = array_src;
    22aa:	dc 01       	movw	r26, r24
	movw	YL, DL				;Y = array_bfly;
    22ac:	eb 01       	movw	r28, r22
	clr	EH				;Zero
    22ae:	99 27       	eor	r25, r25
	ldiw	ZH,ZL, tbl_window_256		;Z = &tbl_window[0];
    22b0:	ee e9       	ldi	r30, 0x9E	; 158
    22b2:	fd e1       	ldi	r31, 0x1D	; 29
	ldiw	AH,AL, FFT_N_256			;A = FFT_N;
    22b4:	00 e0       	ldi	r16, 0x00	; 0
    22b6:	11 e0       	ldi	r17, 0x01	; 1
1:	lpmw	BH,BL, Z+			;B = *Z++; (window)
    22b8:	25 91       	lpm	r18, Z+
    22ba:	35 91       	lpm	r19, Z+
	ldw	CH,CL, X+			;C = *X++; (I-axis)
    22bc:	4d 91       	ld	r20, X+
    22be:	5d 91       	ld	r21, X+
	FMULS16	DH,DL,T2H,T2L, BH,BL, CH,CL	;D = B * C;
    22c0:	b5 03       	fmuls	r19, r21
    22c2:	b0 01       	movw	r22, r0
    22c4:	2c 03       	fmul	r18, r20
    22c6:	10 01       	movw	r2, r0
    22c8:	69 1f       	adc	r22, r25
    22ca:	bc 03       	fmulsu	r19, r20
    22cc:	79 0b       	sbc	r23, r25
    22ce:	30 0c       	add	r3, r0
    22d0:	61 1d       	adc	r22, r1
    22d2:	79 1f       	adc	r23, r25
    22d4:	da 03       	fmulsu	r21, r18
    22d6:	79 0b       	sbc	r23, r25
    22d8:	30 0c       	add	r3, r0
    22da:	61 1d       	adc	r22, r1
    22dc:	79 1f       	adc	r23, r25
	stw	Y+, DH,DL			;*Y++ = D;
    22de:	69 93       	st	Y+, r22
    22e0:	79 93       	st	Y+, r23
#ifdef INPUT_IQ
	ldw	CH,CL, X+			;C = *X++; (Q-axis)
	FMULS16	DH,DL,T2H,T2L, BH,BL, CH,CL	;D = B * C;
#endif
	stw	Y+, DH,DL			;*Y++ = D;
    22e2:	69 93       	st	Y+, r22
    22e4:	79 93       	st	Y+, r23
	subiw	AH,AL, 1			;while(--A)
    22e6:	01 50       	subi	r16, 0x01	; 1
    22e8:	10 40       	sbci	r17, 0x00	; 0
	brne	1b				;/
    22ea:	31 f7       	brne	.-52     	; 0x22b8 <fft_input_256+0x1a>

	popw	YH,YL
    22ec:	cf 91       	pop	r28
    22ee:	df 91       	pop	r29
	popw	AH,AL
    22f0:	0f 91       	pop	r16
    22f2:	1f 91       	pop	r17
	popw	T2H,T2L
    22f4:	2f 90       	pop	r2
    22f6:	3f 90       	pop	r3
	clr	r1
    22f8:	11 24       	eor	r1, r1
	ret
    22fa:	08 95       	ret

000022fc <fft_execute_256>:

;----------------------------------------------------------------------------;
.global fft_execute_256
.func fft_execute_256
fft_execute_256:
	pushw	T2H,T2L
    22fc:	3f 92       	push	r3
    22fe:	2f 92       	push	r2
	pushw	T4H,T4L
    2300:	5f 92       	push	r5
    2302:	4f 92       	push	r4
	pushw	T6H,T6L
    2304:	7f 92       	push	r7
    2306:	6f 92       	push	r6
	pushw	T8H,T8L
    2308:	9f 92       	push	r9
    230a:	8f 92       	push	r8
	pushw	T10H,T10L
    230c:	bf 92       	push	r11
    230e:	af 92       	push	r10
	pushw	T12H,T12L
    2310:	df 92       	push	r13
    2312:	cf 92       	push	r12
	pushw	T14H,T14L
    2314:	ff 92       	push	r15
    2316:	ef 92       	push	r14
	pushw	AH,AL
    2318:	1f 93       	push	r17
    231a:	0f 93       	push	r16
	pushw	YH,YL
    231c:	df 93       	push	r29
    231e:	cf 93       	push	r28

	movw	ZL, EL				;Z = array_bfly;
    2320:	fc 01       	movw	r30, r24
	ldiw	EH,EL, 1			;E = 1;
    2322:	81 e0       	ldi	r24, 0x01	; 1
    2324:	90 e0       	ldi	r25, 0x00	; 0
	ldiw	XH,XL, FFT_N_256/2			;X = FFT_N/2;
    2326:	a0 e8       	ldi	r26, 0x80	; 128
    2328:	b0 e0       	ldi	r27, 0x00	; 0
1:	ldi	AL, 4				;T12 = E; (angular speed)
    232a:	04 e0       	ldi	r16, 0x04	; 4
	mul	EL, AL				;
    232c:	80 9f       	mul	r24, r16
	movw	T12L, T0L			;
    232e:	60 01       	movw	r12, r0
	mul	EH, AL				;
    2330:	90 9f       	mul	r25, r16
	add	T12H, T0L			;/
    2332:	d0 0c       	add	r13, r0
	movw	T14L, EL			;T14 = E;
    2334:	7c 01       	movw	r14, r24
	pushw	EH,EL
    2336:	9f 93       	push	r25
    2338:	8f 93       	push	r24
	movw	YL, ZL				;Z = &array_bfly[0];
    233a:	ef 01       	movw	r28, r30
	mul	XL, AL				;Y = &array_bfly[X];
    233c:	a0 9f       	mul	r26, r16
	addw	YH,YL, T0H,T0L			;
    233e:	c0 0d       	add	r28, r0
    2340:	d1 1d       	adc	r29, r1
	mul	XH, AL				;
    2342:	b0 9f       	mul	r27, r16
	add	YH, T0L				;/
    2344:	d0 0d       	add	r29, r0
	pushw	ZH,ZL
    2346:	ff 93       	push	r31
    2348:	ef 93       	push	r30
2:	clrw	T10H,T10L			;T10 = 0 (angle)
    234a:	bb 24       	eor	r11, r11
    234c:	aa 24       	eor	r10, r10
	clr	EH				;Zero reg.
    234e:	99 27       	eor	r25, r25
3:	lddw	AH,AL, Z+0			;A = *Z - *Y; *Z++ += *Y;
    2350:	00 81       	ld	r16, Z
    2352:	11 81       	ldd	r17, Z+1	; 0x01
	asrw	AH,AL				;
    2354:	15 95       	asr	r17
    2356:	07 95       	ror	r16
	lddw	DH,DL, Y+0			;
    2358:	68 81       	ld	r22, Y
    235a:	79 81       	ldd	r23, Y+1	; 0x01
	asrw	DH,DL				;
    235c:	75 95       	asr	r23
    235e:	67 95       	ror	r22
	movw	CL, AL				;
    2360:	a8 01       	movw	r20, r16
	subw	AH,AL, DH,DL			;
    2362:	06 1b       	sub	r16, r22
    2364:	17 0b       	sbc	r17, r23
	addw	CH,CL, DH,DL			;
    2366:	46 0f       	add	r20, r22
    2368:	57 1f       	adc	r21, r23
	stw	Z+, CH,CL			;/
    236a:	41 93       	st	Z+, r20
    236c:	51 93       	st	Z+, r21
	lddw	BH,BL, Z+0			;B = *Z - *Y; *Z++ += *Y;
    236e:	20 81       	ld	r18, Z
    2370:	31 81       	ldd	r19, Z+1	; 0x01
	asrw	BH,BL				;
    2372:	35 95       	asr	r19
    2374:	27 95       	ror	r18
	lddw	DH,DL, Y+2			;
    2376:	6a 81       	ldd	r22, Y+2	; 0x02
    2378:	7b 81       	ldd	r23, Y+3	; 0x03
	asrw	DH,DL				;
    237a:	75 95       	asr	r23
    237c:	67 95       	ror	r22
	movw	CL, BL				;
    237e:	a9 01       	movw	r20, r18
	subw	BH,BL, DH,DL			;
    2380:	26 1b       	sub	r18, r22
    2382:	37 0b       	sbc	r19, r23
	addw	CH,CL, DH,DL			;
    2384:	46 0f       	add	r20, r22
    2386:	57 1f       	adc	r21, r23
	stw	Z+, CH,CL			;/
    2388:	41 93       	st	Z+, r20
    238a:	51 93       	st	Z+, r21
	movw	T0L, ZL
    238c:	0f 01       	movw	r0, r30
	ldiw	ZH,ZL, tbl_cos_sin		;C = cos(T10); D = sin(T10);
    238e:	ee e9       	ldi	r30, 0x9E	; 158
    2390:	ff e1       	ldi	r31, 0x1F	; 31
	addw	ZH,ZL, T10H,T10L		;
    2392:	ea 0d       	add	r30, r10
    2394:	fb 1d       	adc	r31, r11
	lpmw	CH,CL, Z+			;
    2396:	45 91       	lpm	r20, Z+
    2398:	55 91       	lpm	r21, Z+
	lpmw	DH,DL, Z+			;/
    239a:	65 91       	lpm	r22, Z+
    239c:	75 91       	lpm	r23, Z+
	movw	ZL, T0L
    239e:	f0 01       	movw	r30, r0
	FMULS16	T4H,T4L,T2H,T2L, AH,AL, CH,CL	;*Y++ = A * C + B * D;
    23a0:	95 03       	fmuls	r17, r21
    23a2:	20 01       	movw	r4, r0
    23a4:	0c 03       	fmul	r16, r20
    23a6:	10 01       	movw	r2, r0
    23a8:	49 1e       	adc	r4, r25
    23aa:	9c 03       	fmulsu	r17, r20
    23ac:	59 0a       	sbc	r5, r25
    23ae:	30 0c       	add	r3, r0
    23b0:	41 1c       	adc	r4, r1
    23b2:	59 1e       	adc	r5, r25
    23b4:	d8 03       	fmulsu	r21, r16
    23b6:	59 0a       	sbc	r5, r25
    23b8:	30 0c       	add	r3, r0
    23ba:	41 1c       	adc	r4, r1
    23bc:	59 1e       	adc	r5, r25
	FMULS16	T8H,T8L,T6H,T6L, BH,BL, DH,DL	;
    23be:	b7 03       	fmuls	r19, r23
    23c0:	40 01       	movw	r8, r0
    23c2:	2e 03       	fmul	r18, r22
    23c4:	30 01       	movw	r6, r0
    23c6:	89 1e       	adc	r8, r25
    23c8:	be 03       	fmulsu	r19, r22
    23ca:	99 0a       	sbc	r9, r25
    23cc:	70 0c       	add	r7, r0
    23ce:	81 1c       	adc	r8, r1
    23d0:	99 1e       	adc	r9, r25
    23d2:	fa 03       	fmulsu	r23, r18
    23d4:	99 0a       	sbc	r9, r25
    23d6:	70 0c       	add	r7, r0
    23d8:	81 1c       	adc	r8, r1
    23da:	99 1e       	adc	r9, r25
	addd	T4H,T4L,T2H,T2L, T8H,T8L,T6H,T6L;
    23dc:	26 0c       	add	r2, r6
    23de:	37 1c       	adc	r3, r7
    23e0:	48 1c       	adc	r4, r8
    23e2:	59 1c       	adc	r5, r9
	stw	Y+, T4H,T4L			;/
    23e4:	49 92       	st	Y+, r4
    23e6:	59 92       	st	Y+, r5
	FMULS16	T4H,T4L,T2H,T2L, BH,BL, CH,CL 	;*Y++ = B * C - A * D;
    23e8:	b5 03       	fmuls	r19, r21
    23ea:	20 01       	movw	r4, r0
    23ec:	2c 03       	fmul	r18, r20
    23ee:	10 01       	movw	r2, r0
    23f0:	49 1e       	adc	r4, r25
    23f2:	bc 03       	fmulsu	r19, r20
    23f4:	59 0a       	sbc	r5, r25
    23f6:	30 0c       	add	r3, r0
    23f8:	41 1c       	adc	r4, r1
    23fa:	59 1e       	adc	r5, r25
    23fc:	da 03       	fmulsu	r21, r18
    23fe:	59 0a       	sbc	r5, r25
    2400:	30 0c       	add	r3, r0
    2402:	41 1c       	adc	r4, r1
    2404:	59 1e       	adc	r5, r25
	FMULS16	T8H,T8L,T6H,T6L, AH,AL, DH,DL 	;
    2406:	97 03       	fmuls	r17, r23
    2408:	40 01       	movw	r8, r0
    240a:	0e 03       	fmul	r16, r22
    240c:	30 01       	movw	r6, r0
    240e:	89 1e       	adc	r8, r25
    2410:	9e 03       	fmulsu	r17, r22
    2412:	99 0a       	sbc	r9, r25
    2414:	70 0c       	add	r7, r0
    2416:	81 1c       	adc	r8, r1
    2418:	99 1e       	adc	r9, r25
    241a:	f8 03       	fmulsu	r23, r16
    241c:	99 0a       	sbc	r9, r25
    241e:	70 0c       	add	r7, r0
    2420:	81 1c       	adc	r8, r1
    2422:	99 1e       	adc	r9, r25
	subd	T4H,T4L,T2H,T2L, T8H,T8L,T6H,T6L;
    2424:	26 18       	sub	r2, r6
    2426:	37 08       	sbc	r3, r7
    2428:	48 08       	sbc	r4, r8
    242a:	59 08       	sbc	r5, r9
	stw	Y+, T4H,T4L			;/
    242c:	49 92       	st	Y+, r4
    242e:	59 92       	st	Y+, r5
	addw	T10H,T10L, T12H,T12L		;T10 += T12; (next angle)
    2430:	ac 0c       	add	r10, r12
    2432:	bd 1c       	adc	r11, r13
#if FFT_N_256 >= 128
	sbrs	T10H, FFT_B_256 - 7			;while(T10 < pi)
    2434:	b1 fe       	sbrs	r11, 1
#else
	sbrs	T10L, FFT_B_256 + 1
#endif
	rjmp	3b				;/
    2436:	8c cf       	rjmp	.-232    	; 0x2350 <fft_execute_256+0x54>
	ldi	AL, 4				;Y += X; Z += X; (skip split segment)
    2438:	04 e0       	ldi	r16, 0x04	; 4
	mul	XL, AL
    243a:	a0 9f       	mul	r26, r16
	addw	YH,YL, T0H,T0L			;
    243c:	c0 0d       	add	r28, r0
    243e:	d1 1d       	adc	r29, r1
	addw	ZH,ZL, T0H,T0L			;
    2440:	e0 0d       	add	r30, r0
    2442:	f1 1d       	adc	r31, r1
	mul	XH, AL				;
    2444:	b0 9f       	mul	r27, r16
	add	YH, T0L				;
    2446:	d0 0d       	add	r29, r0
	add	ZH, T0L				;/
    2448:	f0 0d       	add	r31, r0
	ldi	EL, 1				;while(--T14)
    244a:	81 e0       	ldi	r24, 0x01	; 1
	subw	T14H,T14L, EH,EL		;
    244c:	e8 1a       	sub	r14, r24
    244e:	f9 0a       	sbc	r15, r25
	rjne	2b				;/
    2450:	09 f0       	breq	.+2      	; 0x2454 <fft_execute_256+0x158>
    2452:	7b cf       	rjmp	.-266    	; 0x234a <fft_execute_256+0x4e>
	popw	ZH,ZL
    2454:	ef 91       	pop	r30
    2456:	ff 91       	pop	r31
	popw	EH,EL
    2458:	8f 91       	pop	r24
    245a:	9f 91       	pop	r25
	lslw	EH,EL				;E *= 2;
    245c:	88 0f       	add	r24, r24
    245e:	99 1f       	adc	r25, r25
	lsrw	XH,XL				;while(X /= 2)
    2460:	b6 95       	lsr	r27
    2462:	a7 95       	ror	r26
	adiw	XL, 0				;
    2464:	10 96       	adiw	r26, 0x00	; 0
	rjne	1b				;/
    2466:	09 f0       	breq	.+2      	; 0x246a <fft_execute_256+0x16e>
    2468:	60 cf       	rjmp	.-320    	; 0x232a <fft_execute_256+0x2e>

	popw	YH,YL
    246a:	cf 91       	pop	r28
    246c:	df 91       	pop	r29
	popw	AH,AL
    246e:	0f 91       	pop	r16
    2470:	1f 91       	pop	r17
	popw	T14H,T14L
    2472:	ef 90       	pop	r14
    2474:	ff 90       	pop	r15
	popw	T12H,T12L
    2476:	cf 90       	pop	r12
    2478:	df 90       	pop	r13
	popw	T10H,T10L
    247a:	af 90       	pop	r10
    247c:	bf 90       	pop	r11
	popw	T8H,T8L
    247e:	8f 90       	pop	r8
    2480:	9f 90       	pop	r9
	popw	T6H,T6L
    2482:	6f 90       	pop	r6
    2484:	7f 90       	pop	r7
	popw	T4H,T4L
    2486:	4f 90       	pop	r4
    2488:	5f 90       	pop	r5
	popw	T2H,T2L
    248a:	2f 90       	pop	r2
    248c:	3f 90       	pop	r3
;	clr	r1
	ret
    248e:	08 95       	ret

00002490 <fft_output_256>:

;----------------------------------------------------------------------------;
.global fft_output_256
.func fft_output_256
fft_output_256:
	pushw	T2H,T2L
    2490:	3f 92       	push	r3
    2492:	2f 92       	push	r2
	pushw	T4H,T4L
    2494:	5f 92       	push	r5
    2496:	4f 92       	push	r4
	pushw	T6H,T6L
    2498:	7f 92       	push	r7
    249a:	6f 92       	push	r6
	pushw	T8H,T8L
    249c:	9f 92       	push	r9
    249e:	8f 92       	push	r8
	pushw	T10H,T10L
    24a0:	bf 92       	push	r11
    24a2:	af 92       	push	r10
	pushw	AH,AL
    24a4:	1f 93       	push	r17
    24a6:	0f 93       	push	r16
	pushw	YH,YL
    24a8:	df 93       	push	r29
    24aa:	cf 93       	push	r28

	movw	T10L, EL			;T10 = array_bfly;
    24ac:	5c 01       	movw	r10, r24
	movw	YL, DL				;Y = array_output;
    24ae:	eb 01       	movw	r28, r22
	ldiw	ZH,ZL, tbl_bitrev		;Z = tbl_bitrev;
    24b0:	ee e9       	ldi	r30, 0x9E	; 158
    24b2:	f1 e2       	ldi	r31, 0x21	; 33
	clr	EH				;Zero
    24b4:	99 27       	eor	r25, r25
#ifdef INPUT_IQ
	ldiw	AH,AL, FFT_N_256			;A = FFT_N; (plus/minus)
#else
	ldiw	AH,AL, FFT_N_256 / 2		;A = FFT_N / 2; (plus only)
    24b6:	00 e8       	ldi	r16, 0x80	; 128
    24b8:	10 e0       	ldi	r17, 0x00	; 0
#endif
1:	lpmw	XH,XL, Z+			;X = *Z++;
    24ba:	a5 91       	lpm	r26, Z+
    24bc:	b5 91       	lpm	r27, Z+
	addw	XH,XL, T10H,T10L		;X += array_bfly;
    24be:	aa 0d       	add	r26, r10
    24c0:	bb 1d       	adc	r27, r11
	ldw	BH,BL, X+			;B = *X++;
    24c2:	2d 91       	ld	r18, X+
    24c4:	3d 91       	ld	r19, X+
	ldw	CH,CL, X+			;C = *X++;
    24c6:	4d 91       	ld	r20, X+
    24c8:	5d 91       	ld	r21, X+
	FMULS16	T4H,T4L,T2H,T2L, BH,BL, BH,BL	;T4:T2 = B * B;
    24ca:	b3 03       	fmuls	r19, r19
    24cc:	20 01       	movw	r4, r0
    24ce:	2a 03       	fmul	r18, r18
    24d0:	10 01       	movw	r2, r0
    24d2:	49 1e       	adc	r4, r25
    24d4:	ba 03       	fmulsu	r19, r18
    24d6:	59 0a       	sbc	r5, r25
    24d8:	30 0c       	add	r3, r0
    24da:	41 1c       	adc	r4, r1
    24dc:	59 1e       	adc	r5, r25
    24de:	ba 03       	fmulsu	r19, r18
    24e0:	59 0a       	sbc	r5, r25
    24e2:	30 0c       	add	r3, r0
    24e4:	41 1c       	adc	r4, r1
    24e6:	59 1e       	adc	r5, r25
	FMULS16	T8H,T8L,T6H,T6L, CH,CL, CH,CL	;T8:T6 = C * C;
    24e8:	d5 03       	fmuls	r21, r21
    24ea:	40 01       	movw	r8, r0
    24ec:	4c 03       	fmul	r20, r20
    24ee:	30 01       	movw	r6, r0
    24f0:	89 1e       	adc	r8, r25
    24f2:	dc 03       	fmulsu	r21, r20
    24f4:	99 0a       	sbc	r9, r25
    24f6:	70 0c       	add	r7, r0
    24f8:	81 1c       	adc	r8, r1
    24fa:	99 1e       	adc	r9, r25
    24fc:	dc 03       	fmulsu	r21, r20
    24fe:	99 0a       	sbc	r9, r25
    2500:	70 0c       	add	r7, r0
    2502:	81 1c       	adc	r8, r1
    2504:	99 1e       	adc	r9, r25
	addd	T4H,T4L,T2H,T2L, T8H,T8L,T6H,T6L;T4:T2 += T8:T6;
    2506:	26 0c       	add	r2, r6
    2508:	37 1c       	adc	r3, r7
    250a:	48 1c       	adc	r4, r8
    250c:	59 1c       	adc	r5, r9
	SQRT32					;B = sqrt(T4:T2);
    250e:	66 24       	eor	r6, r6
    2510:	77 24       	eor	r7, r7
    2512:	88 24       	eor	r8, r8
    2514:	99 24       	eor	r9, r9
    2516:	21 e0       	ldi	r18, 0x01	; 1
    2518:	30 e0       	ldi	r19, 0x00	; 0
    251a:	44 27       	eor	r20, r20
    251c:	55 27       	eor	r21, r21
    251e:	70 e1       	ldi	r23, 0x10	; 16
    2520:	22 0c       	add	r2, r2
    2522:	33 1c       	adc	r3, r3
    2524:	44 1c       	adc	r4, r4
    2526:	55 1c       	adc	r5, r5
    2528:	66 1c       	adc	r6, r6
    252a:	77 1c       	adc	r7, r7
    252c:	88 1c       	adc	r8, r8
    252e:	99 1c       	adc	r9, r9
    2530:	22 0c       	add	r2, r2
    2532:	33 1c       	adc	r3, r3
    2534:	44 1c       	adc	r4, r4
    2536:	55 1c       	adc	r5, r5
    2538:	66 1c       	adc	r6, r6
    253a:	77 1c       	adc	r7, r7
    253c:	88 1c       	adc	r8, r8
    253e:	99 1c       	adc	r9, r9
    2540:	2a f4       	brpl	.+10     	; 0x254c <fft_output_256+0xbc>
    2542:	62 0e       	add	r6, r18
    2544:	73 1e       	adc	r7, r19
    2546:	84 1e       	adc	r8, r20
    2548:	95 1e       	adc	r9, r21
    254a:	04 c0       	rjmp	.+8      	; 0x2554 <fft_output_256+0xc4>
    254c:	62 1a       	sub	r6, r18
    254e:	73 0a       	sbc	r7, r19
    2550:	84 0a       	sbc	r8, r20
    2552:	95 0a       	sbc	r9, r21
    2554:	22 0f       	add	r18, r18
    2556:	33 1f       	adc	r19, r19
    2558:	44 1f       	adc	r20, r20
    255a:	28 7f       	andi	r18, 0xF8	; 248
    255c:	25 60       	ori	r18, 0x05	; 5
    255e:	97 fc       	sbrc	r9, 7
    2560:	22 50       	subi	r18, 0x02	; 2
    2562:	7a 95       	dec	r23
    2564:	e9 f6       	brne	.-70     	; 0x2520 <fft_output_256+0x90>
    2566:	46 95       	lsr	r20
    2568:	37 95       	ror	r19
    256a:	27 95       	ror	r18
    256c:	46 95       	lsr	r20
    256e:	37 95       	ror	r19
    2570:	27 95       	ror	r18
	stw	Y+, BH,BL			;*Y++ = B;
    2572:	29 93       	st	Y+, r18
    2574:	39 93       	st	Y+, r19
	subiw	AH,AL, 1			;while(--A)
    2576:	01 50       	subi	r16, 0x01	; 1
    2578:	10 40       	sbci	r17, 0x00	; 0
	rjne	1b				;/
    257a:	09 f0       	breq	.+2      	; 0x257e <fft_output_256+0xee>
    257c:	9e cf       	rjmp	.-196    	; 0x24ba <fft_output_256+0x2a>

	popw	YH,YL
    257e:	cf 91       	pop	r28
    2580:	df 91       	pop	r29
	popw	AH,AL
    2582:	0f 91       	pop	r16
    2584:	1f 91       	pop	r17
	popw	T10H,T10L
    2586:	af 90       	pop	r10
    2588:	bf 90       	pop	r11
	popw	T8H,T8L
    258a:	8f 90       	pop	r8
    258c:	9f 90       	pop	r9
	popw	T6H,T6L
    258e:	6f 90       	pop	r6
    2590:	7f 90       	pop	r7
	popw	T4H,T4L
    2592:	4f 90       	pop	r4
    2594:	5f 90       	pop	r5
	popw	T2H,T2L
    2596:	2f 90       	pop	r2
    2598:	3f 90       	pop	r3
	clr	r1
    259a:	11 24       	eor	r1, r1
	ret
    259c:	08 95       	ret

0000259e <fmuls_f_256>:

;----------------------------------------------------------------------------;
.global fmuls_f_256
.func fmuls_f_256
fmuls_f_256:
	movw	CL, EL				;C = E;
    259e:	ac 01       	movw	r20, r24
	clr	EH	;Zero
    25a0:	99 27       	eor	r25, r25
	FMULS16	ZH,ZL,XH,XL, CH,CL, DH,DL	;Z:X = C * D;
    25a2:	d7 03       	fmuls	r21, r23
    25a4:	f0 01       	movw	r30, r0
    25a6:	4e 03       	fmul	r20, r22
    25a8:	d0 01       	movw	r26, r0
    25aa:	e9 1f       	adc	r30, r25
    25ac:	de 03       	fmulsu	r21, r22
    25ae:	f9 0b       	sbc	r31, r25
    25b0:	b0 0d       	add	r27, r0
    25b2:	e1 1d       	adc	r30, r1
    25b4:	f9 1f       	adc	r31, r25
    25b6:	fc 03       	fmulsu	r23, r20
    25b8:	f9 0b       	sbc	r31, r25
    25ba:	b0 0d       	add	r27, r0
    25bc:	e1 1d       	adc	r30, r1
    25be:	f9 1f       	adc	r31, r25
	movw	EL, ZL
    25c0:	cf 01       	movw	r24, r30
	clr	r1
    25c2:	11 24       	eor	r1, r1
	ret
    25c4:	08 95       	ret

000025c6 <tbl_window_512>:
    25c6:	3d 0a       	sbc	r3, r29
    25c8:	3e 0a       	sbc	r3, r30
    25ca:	41 0a       	sbc	r4, r17
    25cc:	47 0a       	sbc	r4, r23
    25ce:	4f 0a       	sbc	r4, r31
    25d0:	59 0a       	sbc	r5, r25
    25d2:	66 0a       	sbc	r6, r22
    25d4:	74 0a       	sbc	r7, r20
    25d6:	85 0a       	sbc	r8, r21
    25d8:	99 0a       	sbc	r9, r25
    25da:	ae 0a       	sbc	r10, r30
    25dc:	c6 0a       	sbc	r12, r22
    25de:	e0 0a       	sbc	r14, r16
    25e0:	fc 0a       	sbc	r15, r28
    25e2:	1b 0b       	sbc	r17, r27
    25e4:	3c 0b       	sbc	r19, r28
    25e6:	5e 0b       	sbc	r21, r30
    25e8:	84 0b       	sbc	r24, r20
    25ea:	ab 0b       	sbc	r26, r27
    25ec:	d5 0b       	sbc	r29, r21
    25ee:	01 0c       	add	r0, r1
    25f0:	2f 0c       	add	r2, r15
    25f2:	5f 0c       	add	r5, r15
    25f4:	91 0c       	add	r9, r1
    25f6:	c6 0c       	add	r12, r6
    25f8:	fd 0c       	add	r15, r13
    25fa:	36 0d       	add	r19, r6
    25fc:	71 0d       	add	r23, r1
    25fe:	ae 0d       	add	r26, r14
    2600:	ed 0d       	add	r30, r13
    2602:	2f 0e       	add	r2, r31
    2604:	72 0e       	add	r7, r18
    2606:	b8 0e       	add	r11, r24
    2608:	00 0f       	add	r16, r16
    260a:	4a 0f       	add	r20, r26
    260c:	96 0f       	add	r25, r22
    260e:	e4 0f       	add	r30, r20
    2610:	34 10       	cpse	r3, r4
    2612:	86 10       	cpse	r8, r6
    2614:	da 10       	cpse	r13, r10
    2616:	31 11       	cpse	r19, r1
    2618:	89 11       	cpse	r24, r9
    261a:	e3 11       	cpse	r30, r3
    261c:	3f 12       	cpse	r3, r31
    261e:	9d 12       	cpse	r9, r29
    2620:	fd 12       	cpse	r15, r29
    2622:	5f 13       	cpse	r21, r31
    2624:	c3 13       	cpse	r28, r19
    2626:	29 14       	cp	r2, r9
    2628:	91 14       	cp	r9, r1
    262a:	fa 14       	cp	r15, r10
    262c:	66 15       	cp	r22, r6
    262e:	d3 15       	cp	r29, r3
    2630:	42 16       	cp	r4, r18
    2632:	b3 16       	cp	r11, r19
    2634:	26 17       	cp	r18, r22
    2636:	9a 17       	cp	r25, r26
    2638:	10 18       	sub	r1, r0
    263a:	88 18       	sub	r8, r8
    263c:	02 19       	sub	r16, r2
    263e:	7d 19       	sub	r23, r13
    2640:	fb 19       	sub	r31, r11
    2642:	79 1a       	sub	r7, r25
    2644:	fa 1a       	sub	r15, r26
    2646:	7c 1b       	sub	r23, r28
    2648:	ff 1b       	sub	r31, r31
    264a:	84 1c       	adc	r8, r4
    264c:	0b 1d       	adc	r16, r11
    264e:	93 1d       	adc	r25, r3
    2650:	1d 1e       	adc	r1, r29
    2652:	a9 1e       	adc	r10, r25
    2654:	35 1f       	adc	r19, r21
    2656:	c4 1f       	adc	r28, r20
    2658:	53 20       	and	r5, r3
    265a:	e4 20       	and	r14, r4
    265c:	77 21       	and	r23, r7
    265e:	0b 22       	and	r0, r27
    2660:	a0 22       	and	r10, r16
    2662:	37 23       	and	r19, r23
    2664:	ce 23       	and	r28, r30
    2666:	68 24       	eor	r6, r8
    2668:	02 25       	eor	r16, r2
    266a:	9e 25       	eor	r25, r14
    266c:	3b 26       	eor	r3, r27
    266e:	d9 26       	eor	r13, r25
    2670:	78 27       	eor	r23, r24
    2672:	18 28       	or	r1, r8
    2674:	ba 28       	or	r11, r10
    2676:	5c 29       	or	r21, r12
    2678:	00 2a       	or	r0, r16
    267a:	a5 2a       	or	r10, r21
    267c:	4a 2b       	or	r20, r26
    267e:	f1 2b       	or	r31, r17
    2680:	99 2c       	mov	r9, r9
    2682:	42 2d       	mov	r20, r2
    2684:	eb 2d       	mov	r30, r11
    2686:	96 2e       	mov	r9, r22
    2688:	41 2f       	mov	r20, r17
    268a:	ed 2f       	mov	r30, r29
    268c:	9a 30       	cpi	r25, 0x0A	; 10
    268e:	48 31       	cpi	r20, 0x18	; 24
    2690:	f6 31       	cpi	r31, 0x16	; 22
    2692:	a6 32       	cpi	r26, 0x26	; 38
    2694:	56 33       	cpi	r21, 0x36	; 54
    2696:	06 34       	cpi	r16, 0x46	; 70
    2698:	b8 34       	cpi	r27, 0x48	; 72
    269a:	6a 35       	cpi	r22, 0x5A	; 90
    269c:	1c 36       	cpi	r17, 0x6C	; 108
    269e:	cf 36       	cpi	r28, 0x6F	; 111
    26a0:	83 37       	cpi	r24, 0x73	; 115
    26a2:	37 38       	cpi	r19, 0x87	; 135
    26a4:	ec 38       	cpi	r30, 0x8C	; 140
    26a6:	a1 39       	cpi	r26, 0x91	; 145
    26a8:	57 3a       	cpi	r21, 0xA7	; 167
    26aa:	0d 3b       	cpi	r16, 0xBD	; 189
    26ac:	c3 3b       	cpi	r28, 0xB3	; 179
    26ae:	7a 3c       	cpi	r23, 0xCA	; 202
    26b0:	31 3d       	cpi	r19, 0xD1	; 209
    26b2:	e9 3d       	cpi	r30, 0xD9	; 217
    26b4:	a0 3e       	cpi	r26, 0xE0	; 224
    26b6:	58 3f       	cpi	r21, 0xF8	; 248
    26b8:	10 40       	sbci	r17, 0x00	; 0
    26ba:	c9 40       	sbci	r28, 0x09	; 9
    26bc:	81 41       	sbci	r24, 0x11	; 17
    26be:	3a 42       	sbci	r19, 0x2A	; 42
    26c0:	f3 42       	sbci	r31, 0x23	; 35
    26c2:	ac 43       	sbci	r26, 0x3C	; 60
    26c4:	65 44       	sbci	r22, 0x45	; 69
    26c6:	1e 45       	sbci	r17, 0x5E	; 94
    26c8:	d7 45       	sbci	r29, 0x57	; 87
    26ca:	90 46       	sbci	r25, 0x60	; 96
    26cc:	48 47       	sbci	r20, 0x78	; 120
    26ce:	01 48       	sbci	r16, 0x81	; 129
    26d0:	ba 48       	sbci	r27, 0x8A	; 138
    26d2:	72 49       	sbci	r23, 0x92	; 146
    26d4:	2b 4a       	sbci	r18, 0xAB	; 171
    26d6:	e3 4a       	sbci	r30, 0xA3	; 163
    26d8:	9b 4b       	sbci	r25, 0xBB	; 187
    26da:	53 4c       	sbci	r21, 0xC3	; 195
    26dc:	0a 4d       	sbci	r16, 0xDA	; 218
    26de:	c1 4d       	sbci	r28, 0xD1	; 209
    26e0:	78 4e       	sbci	r23, 0xE8	; 232
    26e2:	2f 4f       	sbci	r18, 0xFF	; 255
    26e4:	e5 4f       	sbci	r30, 0xF5	; 245
    26e6:	9a 50       	subi	r25, 0x0A	; 10
    26e8:	4f 51       	subi	r20, 0x1F	; 31
    26ea:	04 52       	subi	r16, 0x24	; 36
    26ec:	b8 52       	subi	r27, 0x28	; 40
    26ee:	6c 53       	subi	r22, 0x3C	; 60
    26f0:	1f 54       	subi	r17, 0x4F	; 79
    26f2:	d2 54       	subi	r29, 0x42	; 66
    26f4:	84 55       	subi	r24, 0x54	; 84
    26f6:	35 56       	subi	r19, 0x65	; 101
    26f8:	e6 56       	subi	r30, 0x66	; 102
    26fa:	96 57       	subi	r25, 0x76	; 118
    26fc:	45 58       	subi	r20, 0x85	; 133
    26fe:	f4 58       	subi	r31, 0x84	; 132
    2700:	a1 59       	subi	r26, 0x91	; 145
    2702:	4e 5a       	subi	r20, 0xAE	; 174
    2704:	fa 5a       	subi	r31, 0xAA	; 170
    2706:	a6 5b       	subi	r26, 0xB6	; 182
    2708:	50 5c       	subi	r21, 0xC0	; 192
    270a:	fa 5c       	subi	r31, 0xCA	; 202
    270c:	a2 5d       	subi	r26, 0xD2	; 210
    270e:	4a 5e       	subi	r20, 0xEA	; 234
    2710:	f1 5e       	subi	r31, 0xE1	; 225
    2712:	97 5f       	subi	r25, 0xF7	; 247
    2714:	3b 60       	ori	r19, 0x0B	; 11
    2716:	df 60       	ori	r29, 0x0F	; 15
    2718:	82 61       	ori	r24, 0x12	; 18
    271a:	23 62       	ori	r18, 0x23	; 35
    271c:	c3 62       	ori	r28, 0x23	; 35
    271e:	63 63       	ori	r22, 0x33	; 51
    2720:	01 64       	ori	r16, 0x41	; 65
    2722:	9e 64       	ori	r25, 0x4E	; 78
    2724:	39 65       	ori	r19, 0x59	; 89
    2726:	d4 65       	ori	r29, 0x54	; 84
    2728:	6d 66       	ori	r22, 0x6D	; 109
    272a:	05 67       	ori	r16, 0x75	; 117
    272c:	9b 67       	ori	r25, 0x7B	; 123
    272e:	31 68       	ori	r19, 0x81	; 129
    2730:	c4 68       	ori	r28, 0x84	; 132
    2732:	57 69       	ori	r21, 0x97	; 151
    2734:	e8 69       	ori	r30, 0x98	; 152
    2736:	78 6a       	ori	r23, 0xA8	; 168
    2738:	06 6b       	ori	r16, 0xB6	; 182
    273a:	93 6b       	ori	r25, 0xB3	; 179
    273c:	1e 6c       	ori	r17, 0xCE	; 206
    273e:	a8 6c       	ori	r26, 0xC8	; 200
    2740:	30 6d       	ori	r19, 0xD0	; 208
    2742:	b7 6d       	ori	r27, 0xD7	; 215
    2744:	3c 6e       	ori	r19, 0xEC	; 236
    2746:	c0 6e       	ori	r28, 0xE0	; 224
    2748:	42 6f       	ori	r20, 0xF2	; 242
    274a:	c2 6f       	ori	r28, 0xF2	; 242
    274c:	41 70       	andi	r20, 0x01	; 1
    274e:	be 70       	andi	r27, 0x0E	; 14
    2750:	39 71       	andi	r19, 0x19	; 25
    2752:	b3 71       	andi	r27, 0x13	; 19
    2754:	2b 72       	andi	r18, 0x2B	; 43
    2756:	a1 72       	andi	r26, 0x21	; 33
    2758:	16 73       	andi	r17, 0x36	; 54
    275a:	88 73       	andi	r24, 0x38	; 56
    275c:	f9 73       	andi	r31, 0x39	; 57
    275e:	68 74       	andi	r22, 0x48	; 72
    2760:	d6 74       	andi	r29, 0x46	; 70
    2762:	41 75       	andi	r20, 0x51	; 81
    2764:	ab 75       	andi	r26, 0x5B	; 91
    2766:	12 76       	andi	r17, 0x62	; 98
    2768:	78 76       	andi	r23, 0x68	; 104
    276a:	dc 76       	andi	r29, 0x6C	; 108
    276c:	3e 77       	andi	r19, 0x7E	; 126
    276e:	9e 77       	andi	r25, 0x7E	; 126
    2770:	fc 77       	andi	r31, 0x7C	; 124
    2772:	58 78       	andi	r21, 0x88	; 136
    2774:	b3 78       	andi	r27, 0x83	; 131
    2776:	0b 79       	andi	r16, 0x9B	; 155
    2778:	61 79       	andi	r22, 0x91	; 145
    277a:	b5 79       	andi	r27, 0x95	; 149
    277c:	07 7a       	andi	r16, 0xA7	; 167
    277e:	57 7a       	andi	r21, 0xA7	; 167
    2780:	a5 7a       	andi	r26, 0xA5	; 165
    2782:	f1 7a       	andi	r31, 0xA1	; 161
    2784:	3b 7b       	andi	r19, 0xBB	; 187
    2786:	83 7b       	andi	r24, 0xB3	; 179
    2788:	c9 7b       	andi	r28, 0xB9	; 185
    278a:	0c 7c       	andi	r16, 0xCC	; 204
    278c:	4e 7c       	andi	r20, 0xCE	; 206
    278e:	8d 7c       	andi	r24, 0xCD	; 205
    2790:	cb 7c       	andi	r28, 0xCB	; 203
    2792:	06 7d       	andi	r16, 0xD6	; 214
    2794:	3f 7d       	andi	r19, 0xDF	; 223
    2796:	75 7d       	andi	r23, 0xD5	; 213
    2798:	aa 7d       	andi	r26, 0xDA	; 218
    279a:	dc 7d       	andi	r29, 0xDC	; 220
    279c:	0d 7e       	andi	r16, 0xED	; 237
    279e:	3b 7e       	andi	r19, 0xEB	; 235
    27a0:	67 7e       	andi	r22, 0xE7	; 231
    27a2:	90 7e       	andi	r25, 0xE0	; 224
    27a4:	b8 7e       	andi	r27, 0xE8	; 232
    27a6:	dd 7e       	andi	r29, 0xED	; 237
    27a8:	00 7f       	andi	r16, 0xF0	; 240
    27aa:	21 7f       	andi	r18, 0xF1	; 241
    27ac:	3f 7f       	andi	r19, 0xFF	; 255
    27ae:	5b 7f       	andi	r21, 0xFB	; 251
    27b0:	75 7f       	andi	r23, 0xF5	; 245
    27b2:	8d 7f       	andi	r24, 0xFD	; 253
    27b4:	a3 7f       	andi	r26, 0xF3	; 243
    27b6:	b6 7f       	andi	r27, 0xF6	; 246
    27b8:	c7 7f       	andi	r28, 0xF7	; 247
    27ba:	d6 7f       	andi	r29, 0xF6	; 246
    27bc:	e2 7f       	andi	r30, 0xF2	; 242
    27be:	ec 7f       	andi	r30, 0xFC	; 252
    27c0:	f4 7f       	andi	r31, 0xF4	; 244
    27c2:	fa 7f       	andi	r31, 0xFA	; 250
    27c4:	fd 7f       	andi	r31, 0xFD	; 253
    27c6:	fe 7f       	andi	r31, 0xFE	; 254
    27c8:	fd 7f       	andi	r31, 0xFD	; 253
    27ca:	fa 7f       	andi	r31, 0xFA	; 250
    27cc:	f4 7f       	andi	r31, 0xF4	; 244
    27ce:	ec 7f       	andi	r30, 0xFC	; 252
    27d0:	e2 7f       	andi	r30, 0xF2	; 242
    27d2:	d6 7f       	andi	r29, 0xF6	; 246
    27d4:	c7 7f       	andi	r28, 0xF7	; 247
    27d6:	b6 7f       	andi	r27, 0xF6	; 246
    27d8:	a3 7f       	andi	r26, 0xF3	; 243
    27da:	8d 7f       	andi	r24, 0xFD	; 253
    27dc:	75 7f       	andi	r23, 0xF5	; 245
    27de:	5b 7f       	andi	r21, 0xFB	; 251
    27e0:	3f 7f       	andi	r19, 0xFF	; 255
    27e2:	21 7f       	andi	r18, 0xF1	; 241
    27e4:	00 7f       	andi	r16, 0xF0	; 240
    27e6:	dd 7e       	andi	r29, 0xED	; 237
    27e8:	b8 7e       	andi	r27, 0xE8	; 232
    27ea:	90 7e       	andi	r25, 0xE0	; 224
    27ec:	67 7e       	andi	r22, 0xE7	; 231
    27ee:	3b 7e       	andi	r19, 0xEB	; 235
    27f0:	0d 7e       	andi	r16, 0xED	; 237
    27f2:	dd 7d       	andi	r29, 0xDD	; 221
    27f4:	aa 7d       	andi	r26, 0xDA	; 218
    27f6:	75 7d       	andi	r23, 0xD5	; 213
    27f8:	3f 7d       	andi	r19, 0xDF	; 223
    27fa:	06 7d       	andi	r16, 0xD6	; 214
    27fc:	cb 7c       	andi	r28, 0xCB	; 203
    27fe:	8d 7c       	andi	r24, 0xCD	; 205
    2800:	4e 7c       	andi	r20, 0xCE	; 206
    2802:	0d 7c       	andi	r16, 0xCD	; 205
    2804:	c9 7b       	andi	r28, 0xB9	; 185
    2806:	83 7b       	andi	r24, 0xB3	; 179
    2808:	3b 7b       	andi	r19, 0xBB	; 187
    280a:	f1 7a       	andi	r31, 0xA1	; 161
    280c:	a5 7a       	andi	r26, 0xA5	; 165
    280e:	57 7a       	andi	r21, 0xA7	; 167
    2810:	07 7a       	andi	r16, 0xA7	; 167
    2812:	b5 79       	andi	r27, 0x95	; 149
    2814:	61 79       	andi	r22, 0x91	; 145
    2816:	0b 79       	andi	r16, 0x9B	; 155
    2818:	b3 78       	andi	r27, 0x83	; 131
    281a:	58 78       	andi	r21, 0x88	; 136
    281c:	fc 77       	andi	r31, 0x7C	; 124
    281e:	9e 77       	andi	r25, 0x7E	; 126
    2820:	3e 77       	andi	r19, 0x7E	; 126
    2822:	dc 76       	andi	r29, 0x6C	; 108
    2824:	78 76       	andi	r23, 0x68	; 104
    2826:	12 76       	andi	r17, 0x62	; 98
    2828:	ab 75       	andi	r26, 0x5B	; 91
    282a:	41 75       	andi	r20, 0x51	; 81
    282c:	d6 74       	andi	r29, 0x46	; 70
    282e:	68 74       	andi	r22, 0x48	; 72
    2830:	f9 73       	andi	r31, 0x39	; 57
    2832:	88 73       	andi	r24, 0x38	; 56
    2834:	16 73       	andi	r17, 0x36	; 54
    2836:	a1 72       	andi	r26, 0x21	; 33
    2838:	2b 72       	andi	r18, 0x2B	; 43
    283a:	b3 71       	andi	r27, 0x13	; 19
    283c:	39 71       	andi	r19, 0x19	; 25
    283e:	be 70       	andi	r27, 0x0E	; 14
    2840:	41 70       	andi	r20, 0x01	; 1
    2842:	c2 6f       	ori	r28, 0xF2	; 242
    2844:	42 6f       	ori	r20, 0xF2	; 242
    2846:	c0 6e       	ori	r28, 0xE0	; 224
    2848:	3c 6e       	ori	r19, 0xEC	; 236
    284a:	b7 6d       	ori	r27, 0xD7	; 215
    284c:	30 6d       	ori	r19, 0xD0	; 208
    284e:	a8 6c       	ori	r26, 0xC8	; 200
    2850:	1e 6c       	ori	r17, 0xCE	; 206
    2852:	93 6b       	ori	r25, 0xB3	; 179
    2854:	06 6b       	ori	r16, 0xB6	; 182
    2856:	78 6a       	ori	r23, 0xA8	; 168
    2858:	e8 69       	ori	r30, 0x98	; 152
    285a:	57 69       	ori	r21, 0x97	; 151
    285c:	c4 68       	ori	r28, 0x84	; 132
    285e:	31 68       	ori	r19, 0x81	; 129
    2860:	9b 67       	ori	r25, 0x7B	; 123
    2862:	05 67       	ori	r16, 0x75	; 117
    2864:	6d 66       	ori	r22, 0x6D	; 109
    2866:	d4 65       	ori	r29, 0x54	; 84
    2868:	39 65       	ori	r19, 0x59	; 89
    286a:	9e 64       	ori	r25, 0x4E	; 78
    286c:	01 64       	ori	r16, 0x41	; 65
    286e:	63 63       	ori	r22, 0x33	; 51
    2870:	c3 62       	ori	r28, 0x23	; 35
    2872:	23 62       	ori	r18, 0x23	; 35
    2874:	82 61       	ori	r24, 0x12	; 18
    2876:	df 60       	ori	r29, 0x0F	; 15
    2878:	3b 60       	ori	r19, 0x0B	; 11
    287a:	97 5f       	subi	r25, 0xF7	; 247
    287c:	f1 5e       	subi	r31, 0xE1	; 225
    287e:	4a 5e       	subi	r20, 0xEA	; 234
    2880:	a2 5d       	subi	r26, 0xD2	; 210
    2882:	fa 5c       	subi	r31, 0xCA	; 202
    2884:	50 5c       	subi	r21, 0xC0	; 192
    2886:	a6 5b       	subi	r26, 0xB6	; 182
    2888:	fb 5a       	subi	r31, 0xAB	; 171
    288a:	4e 5a       	subi	r20, 0xAE	; 174
    288c:	a1 59       	subi	r26, 0x91	; 145
    288e:	f4 58       	subi	r31, 0x84	; 132
    2890:	45 58       	subi	r20, 0x85	; 133
    2892:	96 57       	subi	r25, 0x76	; 118
    2894:	e6 56       	subi	r30, 0x66	; 102
    2896:	35 56       	subi	r19, 0x65	; 101
    2898:	84 55       	subi	r24, 0x54	; 84
    289a:	d2 54       	subi	r29, 0x42	; 66
    289c:	1f 54       	subi	r17, 0x4F	; 79
    289e:	6c 53       	subi	r22, 0x3C	; 60
    28a0:	b8 52       	subi	r27, 0x28	; 40
    28a2:	04 52       	subi	r16, 0x24	; 36
    28a4:	4f 51       	subi	r20, 0x1F	; 31
    28a6:	9a 50       	subi	r25, 0x0A	; 10
    28a8:	e5 4f       	sbci	r30, 0xF5	; 245
    28aa:	2f 4f       	sbci	r18, 0xFF	; 255
    28ac:	78 4e       	sbci	r23, 0xE8	; 232
    28ae:	c1 4d       	sbci	r28, 0xD1	; 209
    28b0:	0a 4d       	sbci	r16, 0xDA	; 218
    28b2:	53 4c       	sbci	r21, 0xC3	; 195
    28b4:	9b 4b       	sbci	r25, 0xBB	; 187
    28b6:	e3 4a       	sbci	r30, 0xA3	; 163
    28b8:	2b 4a       	sbci	r18, 0xAB	; 171
    28ba:	73 49       	sbci	r23, 0x93	; 147
    28bc:	ba 48       	sbci	r27, 0x8A	; 138
    28be:	01 48       	sbci	r16, 0x81	; 129
    28c0:	49 47       	sbci	r20, 0x79	; 121
    28c2:	90 46       	sbci	r25, 0x60	; 96
    28c4:	d7 45       	sbci	r29, 0x57	; 87
    28c6:	1e 45       	sbci	r17, 0x5E	; 94
    28c8:	65 44       	sbci	r22, 0x45	; 69
    28ca:	ac 43       	sbci	r26, 0x3C	; 60
    28cc:	f3 42       	sbci	r31, 0x23	; 35
    28ce:	3a 42       	sbci	r19, 0x2A	; 42
    28d0:	81 41       	sbci	r24, 0x11	; 17
    28d2:	c9 40       	sbci	r28, 0x09	; 9
    28d4:	11 40       	sbci	r17, 0x01	; 1
    28d6:	58 3f       	cpi	r21, 0xF8	; 248
    28d8:	a0 3e       	cpi	r26, 0xE0	; 224
    28da:	e9 3d       	cpi	r30, 0xD9	; 217
    28dc:	31 3d       	cpi	r19, 0xD1	; 209
    28de:	7a 3c       	cpi	r23, 0xCA	; 202
    28e0:	c3 3b       	cpi	r28, 0xB3	; 179
    28e2:	0d 3b       	cpi	r16, 0xBD	; 189
    28e4:	57 3a       	cpi	r21, 0xA7	; 167
    28e6:	a1 39       	cpi	r26, 0x91	; 145
    28e8:	ec 38       	cpi	r30, 0x8C	; 140
    28ea:	37 38       	cpi	r19, 0x87	; 135
    28ec:	83 37       	cpi	r24, 0x73	; 115
    28ee:	cf 36       	cpi	r28, 0x6F	; 111
    28f0:	1c 36       	cpi	r17, 0x6C	; 108
    28f2:	6a 35       	cpi	r22, 0x5A	; 90
    28f4:	b8 34       	cpi	r27, 0x48	; 72
    28f6:	06 34       	cpi	r16, 0x46	; 70
    28f8:	56 33       	cpi	r21, 0x36	; 54
    28fa:	a6 32       	cpi	r26, 0x26	; 38
    28fc:	f6 31       	cpi	r31, 0x16	; 22
    28fe:	48 31       	cpi	r20, 0x18	; 24
    2900:	9a 30       	cpi	r25, 0x0A	; 10
    2902:	ed 2f       	mov	r30, r29
    2904:	41 2f       	mov	r20, r17
    2906:	96 2e       	mov	r9, r22
    2908:	eb 2d       	mov	r30, r11
    290a:	42 2d       	mov	r20, r2
    290c:	99 2c       	mov	r9, r9
    290e:	f1 2b       	or	r31, r17
    2910:	4b 2b       	or	r20, r27
    2912:	a5 2a       	or	r10, r21
    2914:	00 2a       	or	r0, r16
    2916:	5c 29       	or	r21, r12
    2918:	ba 28       	or	r11, r10
    291a:	18 28       	or	r1, r8
    291c:	78 27       	eor	r23, r24
    291e:	d9 26       	eor	r13, r25
    2920:	3b 26       	eor	r3, r27
    2922:	9e 25       	eor	r25, r14
    2924:	02 25       	eor	r16, r2
    2926:	68 24       	eor	r6, r8
    2928:	cf 23       	and	r28, r31
    292a:	37 23       	and	r19, r23
    292c:	a0 22       	and	r10, r16
    292e:	0b 22       	and	r0, r27
    2930:	77 21       	and	r23, r7
    2932:	e4 20       	and	r14, r4
    2934:	53 20       	and	r5, r3
    2936:	c4 1f       	adc	r28, r20
    2938:	35 1f       	adc	r19, r21
    293a:	a9 1e       	adc	r10, r25
    293c:	1d 1e       	adc	r1, r29
    293e:	93 1d       	adc	r25, r3
    2940:	0b 1d       	adc	r16, r11
    2942:	84 1c       	adc	r8, r4
    2944:	ff 1b       	sub	r31, r31
    2946:	7c 1b       	sub	r23, r28
    2948:	fa 1a       	sub	r15, r26
    294a:	79 1a       	sub	r7, r25
    294c:	fb 19       	sub	r31, r11
    294e:	7e 19       	sub	r23, r14
    2950:	02 19       	sub	r16, r2
    2952:	88 18       	sub	r8, r8
    2954:	10 18       	sub	r1, r0
    2956:	9a 17       	cp	r25, r26
    2958:	26 17       	cp	r18, r22
    295a:	b3 16       	cp	r11, r19
    295c:	42 16       	cp	r4, r18
    295e:	d3 15       	cp	r29, r3
    2960:	66 15       	cp	r22, r6
    2962:	fa 14       	cp	r15, r10
    2964:	91 14       	cp	r9, r1
    2966:	29 14       	cp	r2, r9
    2968:	c3 13       	cpse	r28, r19
    296a:	5f 13       	cpse	r21, r31
    296c:	fd 12       	cpse	r15, r29
    296e:	9d 12       	cpse	r9, r29
    2970:	3f 12       	cpse	r3, r31
    2972:	e3 11       	cpse	r30, r3
    2974:	89 11       	cpse	r24, r9
    2976:	31 11       	cpse	r19, r1
    2978:	da 10       	cpse	r13, r10
    297a:	86 10       	cpse	r8, r6
    297c:	34 10       	cpse	r3, r4
    297e:	e4 0f       	add	r30, r20
    2980:	96 0f       	add	r25, r22
    2982:	4a 0f       	add	r20, r26
    2984:	00 0f       	add	r16, r16
    2986:	b8 0e       	add	r11, r24
    2988:	73 0e       	add	r7, r19
    298a:	2f 0e       	add	r2, r31
    298c:	ed 0d       	add	r30, r13
    298e:	ae 0d       	add	r26, r14
    2990:	71 0d       	add	r23, r1
    2992:	36 0d       	add	r19, r6
    2994:	fd 0c       	add	r15, r13
    2996:	c6 0c       	add	r12, r6
    2998:	91 0c       	add	r9, r1
    299a:	5f 0c       	add	r5, r15
    299c:	2f 0c       	add	r2, r15
    299e:	01 0c       	add	r0, r1
    29a0:	d5 0b       	sbc	r29, r21
    29a2:	ab 0b       	sbc	r26, r27
    29a4:	84 0b       	sbc	r24, r20
    29a6:	5e 0b       	sbc	r21, r30
    29a8:	3c 0b       	sbc	r19, r28
    29aa:	1b 0b       	sbc	r17, r27
    29ac:	fc 0a       	sbc	r15, r28
    29ae:	e0 0a       	sbc	r14, r16
    29b0:	c6 0a       	sbc	r12, r22
    29b2:	ae 0a       	sbc	r10, r30
    29b4:	99 0a       	sbc	r9, r25
    29b6:	85 0a       	sbc	r8, r21
    29b8:	74 0a       	sbc	r7, r20
    29ba:	66 0a       	sbc	r6, r22
    29bc:	59 0a       	sbc	r5, r25
    29be:	4f 0a       	sbc	r4, r31
    29c0:	47 0a       	sbc	r4, r23
    29c2:	41 0a       	sbc	r4, r17
    29c4:	3e 0a       	sbc	r3, r30

000029c6 <tbl_cos_sin>:
    29c6:	ff 7f       	andi	r31, 0xFF	; 255
    29c8:	00 00       	nop
    29ca:	fc 7f       	andi	r31, 0xFC	; 252
    29cc:	92 01       	movw	r18, r4
    29ce:	f5 7f       	andi	r31, 0xF5	; 245
    29d0:	24 03       	mulsu	r18, r20
    29d2:	e8 7f       	andi	r30, 0xF8	; 248
    29d4:	b6 04       	cpc	r11, r6
    29d6:	d7 7f       	andi	r29, 0xF7	; 247
    29d8:	47 06       	cpc	r4, r23
    29da:	c1 7f       	andi	r28, 0xF1	; 241
    29dc:	d9 07       	cpc	r29, r25
    29de:	a6 7f       	andi	r26, 0xF6	; 246
    29e0:	6a 09       	sbc	r22, r10
    29e2:	86 7f       	andi	r24, 0xF6	; 246
    29e4:	fb 0a       	sbc	r15, r27
    29e6:	61 7f       	andi	r22, 0xF1	; 241
    29e8:	8b 0c       	add	r8, r11
    29ea:	37 7f       	andi	r19, 0xF7	; 247
    29ec:	1b 0e       	add	r1, r27
    29ee:	08 7f       	andi	r16, 0xF8	; 248
    29f0:	ab 0f       	add	r26, r27
    29f2:	d4 7e       	andi	r29, 0xE4	; 228
    29f4:	39 11       	cpse	r19, r9
    29f6:	9c 7e       	andi	r25, 0xEC	; 236
    29f8:	c7 12       	cpse	r12, r23
    29fa:	5e 7e       	andi	r21, 0xEE	; 238
    29fc:	55 14       	cp	r5, r5
    29fe:	1c 7e       	andi	r17, 0xEC	; 236
    2a00:	e1 15       	cp	r30, r1
    2a02:	d5 7d       	andi	r29, 0xD5	; 213
    2a04:	6d 17       	cp	r22, r29
    2a06:	89 7d       	andi	r24, 0xD9	; 217
    2a08:	f8 18       	sub	r15, r8
    2a0a:	38 7d       	andi	r19, 0xD8	; 216
    2a0c:	82 1a       	sub	r8, r18
    2a0e:	e2 7c       	andi	r30, 0xC2	; 194
    2a10:	0b 1c       	adc	r0, r11
    2a12:	88 7c       	andi	r24, 0xC8	; 200
    2a14:	93 1d       	adc	r25, r3
    2a16:	29 7c       	andi	r18, 0xC9	; 201
    2a18:	19 1f       	adc	r17, r25
    2a1a:	c4 7b       	andi	r28, 0xB4	; 180
    2a1c:	9f 20       	and	r9, r15
    2a1e:	5c 7b       	andi	r21, 0xBC	; 188
    2a20:	23 22       	and	r2, r19
    2a22:	ee 7a       	andi	r30, 0xAE	; 174
    2a24:	a6 23       	and	r26, r22
    2a26:	7c 7a       	andi	r23, 0xAC	; 172
    2a28:	27 25       	eor	r18, r7
    2a2a:	04 7a       	andi	r16, 0xA4	; 164
    2a2c:	a7 26       	eor	r10, r23
    2a2e:	89 79       	andi	r24, 0x99	; 153
    2a30:	26 28       	or	r2, r6
    2a32:	08 79       	andi	r16, 0x98	; 152
    2a34:	a3 29       	or	r26, r3
    2a36:	83 78       	andi	r24, 0x83	; 131
    2a38:	1e 2b       	or	r17, r30
    2a3a:	f9 77       	andi	r31, 0x79	; 121
    2a3c:	98 2c       	mov	r9, r8
    2a3e:	6b 77       	andi	r22, 0x7B	; 123
    2a40:	10 2e       	mov	r1, r16
    2a42:	d8 76       	andi	r29, 0x68	; 104
    2a44:	86 2f       	mov	r24, r22
    2a46:	40 76       	andi	r20, 0x60	; 96
    2a48:	fb 30       	cpi	r31, 0x0B	; 11
    2a4a:	a4 75       	andi	r26, 0x54	; 84
    2a4c:	6d 32       	cpi	r22, 0x2D	; 45
    2a4e:	03 75       	andi	r16, 0x53	; 83
    2a50:	de 33       	cpi	r29, 0x3E	; 62
    2a52:	5e 74       	andi	r21, 0x4E	; 78
    2a54:	4d 35       	cpi	r20, 0x5D	; 93
    2a56:	b5 73       	andi	r27, 0x35	; 53
    2a58:	b9 36       	cpi	r27, 0x69	; 105
    2a5a:	06 73       	andi	r16, 0x36	; 54
    2a5c:	24 38       	cpi	r18, 0x84	; 132
    2a5e:	54 72       	andi	r21, 0x24	; 36
    2a60:	8c 39       	cpi	r24, 0x9C	; 156
    2a62:	9d 71       	andi	r25, 0x1D	; 29
    2a64:	f2 3a       	cpi	r31, 0xA2	; 162
    2a66:	e1 70       	andi	r30, 0x01	; 1
    2a68:	56 3c       	cpi	r21, 0xC6	; 198
    2a6a:	22 70       	andi	r18, 0x02	; 2
    2a6c:	b7 3d       	cpi	r27, 0xD7	; 215
    2a6e:	5e 6f       	ori	r21, 0xFE	; 254
    2a70:	16 3f       	cpi	r17, 0xF6	; 246
    2a72:	95 6e       	ori	r25, 0xE5	; 229
    2a74:	73 40       	sbci	r23, 0x03	; 3
    2a76:	c9 6d       	ori	r28, 0xD9	; 217
    2a78:	cd 41       	sbci	r28, 0x1D	; 29
    2a7a:	f8 6c       	ori	r31, 0xC8	; 200
    2a7c:	25 43       	sbci	r18, 0x35	; 53
    2a7e:	23 6c       	ori	r18, 0xC3	; 195
    2a80:	7a 44       	sbci	r23, 0x4A	; 74
    2a82:	4a 6b       	ori	r20, 0xBA	; 186
    2a84:	cc 45       	sbci	r28, 0x5C	; 92
    2a86:	6c 6a       	ori	r22, 0xAC	; 172
    2a88:	1c 47       	sbci	r17, 0x7C	; 124
    2a8a:	8b 69       	ori	r24, 0x9B	; 155
    2a8c:	69 48       	sbci	r22, 0x89	; 137
    2a8e:	a5 68       	ori	r26, 0x85	; 133
    2a90:	b3 49       	sbci	r27, 0x93	; 147
    2a92:	bc 67       	ori	r27, 0x7C	; 124
    2a94:	fa 4a       	sbci	r31, 0xAA	; 170
    2a96:	ce 66       	ori	r28, 0x6E	; 110
    2a98:	3f 4c       	sbci	r19, 0xCF	; 207
    2a9a:	dd 65       	ori	r29, 0x5D	; 93
    2a9c:	80 4d       	sbci	r24, 0xD0	; 208
    2a9e:	e7 64       	ori	r30, 0x47	; 71
    2aa0:	bf 4e       	sbci	r27, 0xEF	; 239
    2aa2:	ee 63       	ori	r30, 0x3E	; 62
    2aa4:	fa 4f       	sbci	r31, 0xFA	; 250
    2aa6:	f1 62       	ori	r31, 0x21	; 33
    2aa8:	33 51       	subi	r19, 0x13	; 19
    2aaa:	f0 61       	ori	r31, 0x10	; 16
    2aac:	68 52       	subi	r22, 0x28	; 40
    2aae:	eb 60       	ori	r30, 0x0B	; 11
    2ab0:	9a 53       	subi	r25, 0x3A	; 58
    2ab2:	e2 5f       	subi	r30, 0xF2	; 242
    2ab4:	c9 54       	subi	r28, 0x49	; 73
    2ab6:	d6 5e       	subi	r29, 0xE6	; 230
    2ab8:	f4 55       	subi	r31, 0x54	; 84
    2aba:	c6 5d       	subi	r28, 0xD6	; 214
    2abc:	1d 57       	subi	r17, 0x7D	; 125
    2abe:	b3 5c       	subi	r27, 0xC3	; 195
    2ac0:	42 58       	subi	r20, 0x82	; 130
    2ac2:	9c 5b       	subi	r25, 0xBC	; 188
    2ac4:	63 59       	subi	r22, 0x93	; 147
    2ac6:	81 5a       	subi	r24, 0xA1	; 161
    2ac8:	81 5a       	subi	r24, 0xA1	; 161
    2aca:	63 59       	subi	r22, 0x93	; 147
    2acc:	9c 5b       	subi	r25, 0xBC	; 188
    2ace:	42 58       	subi	r20, 0x82	; 130
    2ad0:	b3 5c       	subi	r27, 0xC3	; 195
    2ad2:	1d 57       	subi	r17, 0x7D	; 125
    2ad4:	c6 5d       	subi	r28, 0xD6	; 214
    2ad6:	f4 55       	subi	r31, 0x54	; 84
    2ad8:	d6 5e       	subi	r29, 0xE6	; 230
    2ada:	c9 54       	subi	r28, 0x49	; 73
    2adc:	e2 5f       	subi	r30, 0xF2	; 242
    2ade:	9a 53       	subi	r25, 0x3A	; 58
    2ae0:	eb 60       	ori	r30, 0x0B	; 11
    2ae2:	68 52       	subi	r22, 0x28	; 40
    2ae4:	f0 61       	ori	r31, 0x10	; 16
    2ae6:	33 51       	subi	r19, 0x13	; 19
    2ae8:	f1 62       	ori	r31, 0x21	; 33
    2aea:	fa 4f       	sbci	r31, 0xFA	; 250
    2aec:	ee 63       	ori	r30, 0x3E	; 62
    2aee:	bf 4e       	sbci	r27, 0xEF	; 239
    2af0:	e7 64       	ori	r30, 0x47	; 71
    2af2:	80 4d       	sbci	r24, 0xD0	; 208
    2af4:	dd 65       	ori	r29, 0x5D	; 93
    2af6:	3f 4c       	sbci	r19, 0xCF	; 207
    2af8:	ce 66       	ori	r28, 0x6E	; 110
    2afa:	fa 4a       	sbci	r31, 0xAA	; 170
    2afc:	bc 67       	ori	r27, 0x7C	; 124
    2afe:	b3 49       	sbci	r27, 0x93	; 147
    2b00:	a5 68       	ori	r26, 0x85	; 133
    2b02:	69 48       	sbci	r22, 0x89	; 137
    2b04:	8b 69       	ori	r24, 0x9B	; 155
    2b06:	1c 47       	sbci	r17, 0x7C	; 124
    2b08:	6c 6a       	ori	r22, 0xAC	; 172
    2b0a:	cc 45       	sbci	r28, 0x5C	; 92
    2b0c:	4a 6b       	ori	r20, 0xBA	; 186
    2b0e:	7a 44       	sbci	r23, 0x4A	; 74
    2b10:	23 6c       	ori	r18, 0xC3	; 195
    2b12:	25 43       	sbci	r18, 0x35	; 53
    2b14:	f8 6c       	ori	r31, 0xC8	; 200
    2b16:	cd 41       	sbci	r28, 0x1D	; 29
    2b18:	c9 6d       	ori	r28, 0xD9	; 217
    2b1a:	73 40       	sbci	r23, 0x03	; 3
    2b1c:	95 6e       	ori	r25, 0xE5	; 229
    2b1e:	16 3f       	cpi	r17, 0xF6	; 246
    2b20:	5e 6f       	ori	r21, 0xFE	; 254
    2b22:	b7 3d       	cpi	r27, 0xD7	; 215
    2b24:	22 70       	andi	r18, 0x02	; 2
    2b26:	56 3c       	cpi	r21, 0xC6	; 198
    2b28:	e1 70       	andi	r30, 0x01	; 1
    2b2a:	f2 3a       	cpi	r31, 0xA2	; 162
    2b2c:	9d 71       	andi	r25, 0x1D	; 29
    2b2e:	8c 39       	cpi	r24, 0x9C	; 156
    2b30:	54 72       	andi	r21, 0x24	; 36
    2b32:	24 38       	cpi	r18, 0x84	; 132
    2b34:	06 73       	andi	r16, 0x36	; 54
    2b36:	b9 36       	cpi	r27, 0x69	; 105
    2b38:	b5 73       	andi	r27, 0x35	; 53
    2b3a:	4d 35       	cpi	r20, 0x5D	; 93
    2b3c:	5e 74       	andi	r21, 0x4E	; 78
    2b3e:	de 33       	cpi	r29, 0x3E	; 62
    2b40:	03 75       	andi	r16, 0x53	; 83
    2b42:	6d 32       	cpi	r22, 0x2D	; 45
    2b44:	a4 75       	andi	r26, 0x54	; 84
    2b46:	fb 30       	cpi	r31, 0x0B	; 11
    2b48:	40 76       	andi	r20, 0x60	; 96
    2b4a:	86 2f       	mov	r24, r22
    2b4c:	d8 76       	andi	r29, 0x68	; 104
    2b4e:	10 2e       	mov	r1, r16
    2b50:	6b 77       	andi	r22, 0x7B	; 123
    2b52:	98 2c       	mov	r9, r8
    2b54:	f9 77       	andi	r31, 0x79	; 121
    2b56:	1e 2b       	or	r17, r30
    2b58:	83 78       	andi	r24, 0x83	; 131
    2b5a:	a3 29       	or	r26, r3
    2b5c:	08 79       	andi	r16, 0x98	; 152
    2b5e:	26 28       	or	r2, r6
    2b60:	89 79       	andi	r24, 0x99	; 153
    2b62:	a7 26       	eor	r10, r23
    2b64:	04 7a       	andi	r16, 0xA4	; 164
    2b66:	27 25       	eor	r18, r7
    2b68:	7c 7a       	andi	r23, 0xAC	; 172
    2b6a:	a6 23       	and	r26, r22
    2b6c:	ee 7a       	andi	r30, 0xAE	; 174
    2b6e:	23 22       	and	r2, r19
    2b70:	5c 7b       	andi	r21, 0xBC	; 188
    2b72:	9f 20       	and	r9, r15
    2b74:	c4 7b       	andi	r28, 0xB4	; 180
    2b76:	19 1f       	adc	r17, r25
    2b78:	29 7c       	andi	r18, 0xC9	; 201
    2b7a:	93 1d       	adc	r25, r3
    2b7c:	88 7c       	andi	r24, 0xC8	; 200
    2b7e:	0b 1c       	adc	r0, r11
    2b80:	e2 7c       	andi	r30, 0xC2	; 194
    2b82:	82 1a       	sub	r8, r18
    2b84:	38 7d       	andi	r19, 0xD8	; 216
    2b86:	f8 18       	sub	r15, r8
    2b88:	89 7d       	andi	r24, 0xD9	; 217
    2b8a:	6d 17       	cp	r22, r29
    2b8c:	d5 7d       	andi	r29, 0xD5	; 213
    2b8e:	e1 15       	cp	r30, r1
    2b90:	1c 7e       	andi	r17, 0xEC	; 236
    2b92:	55 14       	cp	r5, r5
    2b94:	5e 7e       	andi	r21, 0xEE	; 238
    2b96:	c7 12       	cpse	r12, r23
    2b98:	9c 7e       	andi	r25, 0xEC	; 236
    2b9a:	39 11       	cpse	r19, r9
    2b9c:	d4 7e       	andi	r29, 0xE4	; 228
    2b9e:	ab 0f       	add	r26, r27
    2ba0:	08 7f       	andi	r16, 0xF8	; 248
    2ba2:	1b 0e       	add	r1, r27
    2ba4:	37 7f       	andi	r19, 0xF7	; 247
    2ba6:	8b 0c       	add	r8, r11
    2ba8:	61 7f       	andi	r22, 0xF1	; 241
    2baa:	fb 0a       	sbc	r15, r27
    2bac:	86 7f       	andi	r24, 0xF6	; 246
    2bae:	6a 09       	sbc	r22, r10
    2bb0:	a6 7f       	andi	r26, 0xF6	; 246
    2bb2:	d9 07       	cpc	r29, r25
    2bb4:	c1 7f       	andi	r28, 0xF1	; 241
    2bb6:	47 06       	cpc	r4, r23
    2bb8:	d7 7f       	andi	r29, 0xF7	; 247
    2bba:	b6 04       	cpc	r11, r6
    2bbc:	e8 7f       	andi	r30, 0xF8	; 248
    2bbe:	24 03       	mulsu	r18, r20
    2bc0:	f5 7f       	andi	r31, 0xF5	; 245
    2bc2:	92 01       	movw	r18, r4
    2bc4:	fc 7f       	andi	r31, 0xFC	; 252
    2bc6:	00 00       	nop
    2bc8:	fe 7f       	andi	r31, 0xFE	; 254
    2bca:	6e fe       	.word	0xfe6e	; ????
    2bcc:	fc 7f       	andi	r31, 0xFC	; 252
    2bce:	dc fc       	.word	0xfcdc	; ????
    2bd0:	f5 7f       	andi	r31, 0xF5	; 245
    2bd2:	4a fb       	.word	0xfb4a	; ????
    2bd4:	e8 7f       	andi	r30, 0xF8	; 248
    2bd6:	b9 f9       	.word	0xf9b9	; ????
    2bd8:	d7 7f       	andi	r29, 0xF7	; 247
    2bda:	27 f8       	bld	r2, 7
    2bdc:	c1 7f       	andi	r28, 0xF1	; 241
    2bde:	96 f6       	brtc	.-92     	; 0x2b84 <tbl_cos_sin+0x1be>
    2be0:	a6 7f       	andi	r26, 0xF6	; 246
    2be2:	05 f5       	brhc	.+64     	; 0x2c24 <tbl_cos_sin+0x25e>
    2be4:	86 7f       	andi	r24, 0xF6	; 246
    2be6:	75 f3       	brhs	.-36     	; 0x2bc4 <tbl_cos_sin+0x1fe>
    2be8:	61 7f       	andi	r22, 0xF1	; 241
    2bea:	e5 f1       	brhs	.+120    	; 0x2c64 <tbl_cos_sin+0x29e>
    2bec:	37 7f       	andi	r19, 0xF7	; 247
    2bee:	56 f0       	brts	.+20     	; 0x2c04 <tbl_cos_sin+0x23e>
    2bf0:	08 7f       	andi	r16, 0xF8	; 248
    2bf2:	c7 ee       	ldi	r28, 0xE7	; 231
    2bf4:	d4 7e       	andi	r29, 0xE4	; 228
    2bf6:	39 ed       	ldi	r19, 0xD9	; 217
    2bf8:	9c 7e       	andi	r25, 0xEC	; 236
    2bfa:	ab eb       	ldi	r26, 0xBB	; 187
    2bfc:	5e 7e       	andi	r21, 0xEE	; 238
    2bfe:	1f ea       	ldi	r17, 0xAF	; 175
    2c00:	1c 7e       	andi	r17, 0xEC	; 236
    2c02:	93 e8       	ldi	r25, 0x83	; 131
    2c04:	d5 7d       	andi	r29, 0xD5	; 213
    2c06:	08 e7       	ldi	r16, 0x78	; 120
    2c08:	89 7d       	andi	r24, 0xD9	; 217
    2c0a:	7e e5       	ldi	r23, 0x5E	; 94
    2c0c:	38 7d       	andi	r19, 0xD8	; 216
    2c0e:	f5 e3       	ldi	r31, 0x35	; 53
    2c10:	e2 7c       	andi	r30, 0xC2	; 194
    2c12:	6d e2       	ldi	r22, 0x2D	; 45
    2c14:	88 7c       	andi	r24, 0xC8	; 200
    2c16:	e7 e0       	ldi	r30, 0x07	; 7
    2c18:	29 7c       	andi	r18, 0xC9	; 201
    2c1a:	61 df       	rcall	.-318    	; 0x2ade <tbl_cos_sin+0x118>
    2c1c:	c4 7b       	andi	r28, 0xB4	; 180
    2c1e:	dd dd       	rcall	.-1094   	; 0x27da <tbl_window_512+0x214>
    2c20:	5c 7b       	andi	r21, 0xBC	; 188
    2c22:	5a dc       	rcall	.-1868   	; 0x24d8 <fft_output_256+0x48>
    2c24:	ee 7a       	andi	r30, 0xAE	; 174
    2c26:	d9 da       	rcall	.-2638   	; 0x21da <tbl_bitrev+0x3c>
    2c28:	7c 7a       	andi	r23, 0xAC	; 172
    2c2a:	59 d9       	rcall	.-3406   	; 0x1ede <tbl_window_256+0x140>
    2c2c:	04 7a       	andi	r16, 0xA4	; 164
    2c2e:	da d7       	rcall	.+4020   	; 0x3be4 <Set_Config+0x13a>
    2c30:	89 79       	andi	r24, 0x99	; 153
    2c32:	5d d6       	rcall	.+3258   	; 0x38ee <Read_Config+0x110>
    2c34:	08 79       	andi	r16, 0x98	; 152
    2c36:	e2 d4       	rcall	.+2500   	; 0x35fc <fft_execute_64+0x170>
    2c38:	83 78       	andi	r24, 0x83	; 131
    2c3a:	68 d3       	rcall	.+1744   	; 0x330c <tbl_window_64+0x1e>
    2c3c:	f9 77       	andi	r31, 0x79	; 121
    2c3e:	f0 d1       	rcall	.+992    	; 0x3020 <fft_input_512+0x5a>
    2c40:	6b 77       	andi	r22, 0x7B	; 123
    2c42:	7a d0       	rcall	.+244    	; 0x2d38 <tbl_cos_sin+0x372>
    2c44:	d8 76       	andi	r29, 0x68	; 104
    2c46:	05 cf       	rjmp	.-502    	; 0x2a52 <tbl_cos_sin+0x8c>
    2c48:	40 76       	andi	r20, 0x60	; 96
    2c4a:	93 cd       	rjmp	.-1242   	; 0x2772 <tbl_window_512+0x1ac>
    2c4c:	a4 75       	andi	r26, 0x54	; 84
    2c4e:	22 cc       	rjmp	.-1980   	; 0x2494 <fft_output_256+0x4>
    2c50:	03 75       	andi	r16, 0x53	; 83
    2c52:	b3 ca       	rjmp	.-2714   	; 0x21ba <tbl_bitrev+0x1c>
    2c54:	5e 74       	andi	r21, 0x4E	; 78
    2c56:	47 c9       	rjmp	.-3442   	; 0x1ee6 <tbl_window_256+0x148>
    2c58:	b5 73       	andi	r27, 0x35	; 53
    2c5a:	dc c7       	rjmp	.+4024   	; 0x3c14 <Set_Config+0x16a>
    2c5c:	06 73       	andi	r16, 0x36	; 54
    2c5e:	74 c6       	rjmp	.+3304   	; 0x3948 <Read_Config+0x16a>
    2c60:	54 72       	andi	r21, 0x24	; 36
    2c62:	0e c5       	rjmp	.+2588   	; 0x3680 <fft_output_64+0x60>
    2c64:	9d 71       	andi	r25, 0x1D	; 29
    2c66:	aa c3       	rjmp	.+1876   	; 0x33bc <tbl_cos_sin+0x4e>
    2c68:	e1 70       	andi	r30, 0x01	; 1
    2c6a:	49 c2       	rjmp	.+1170   	; 0x30fe <fft_execute_512+0xda>
    2c6c:	22 70       	andi	r18, 0x02	; 2
    2c6e:	ea c0       	rjmp	.+468    	; 0x2e44 <tbl_bitrev+0x7e>
    2c70:	5e 6f       	ori	r21, 0xFE	; 254
    2c72:	8d bf       	out	0x3d, r24	; 61
    2c74:	95 6e       	ori	r25, 0xE5	; 229
    2c76:	33 be       	out	0x33, r3	; 51
    2c78:	c9 6d       	ori	r28, 0xD9	; 217
    2c7a:	db bc       	out	0x2b, r13	; 43
    2c7c:	f8 6c       	ori	r31, 0xC8	; 200
    2c7e:	86 bb       	out	0x16, r24	; 22
    2c80:	23 6c       	ori	r18, 0xC3	; 195
    2c82:	34 ba       	out	0x14, r3	; 20
    2c84:	4a 6b       	ori	r20, 0xBA	; 186
    2c86:	e4 b8       	out	0x04, r14	; 4
    2c88:	6c 6a       	ori	r22, 0xAC	; 172
    2c8a:	97 b7       	in	r25, 0x37	; 55
    2c8c:	8b 69       	ori	r24, 0x9B	; 155
    2c8e:	4d b6       	in	r4, 0x3d	; 61
    2c90:	a5 68       	ori	r26, 0x85	; 133
    2c92:	06 b5       	in	r16, 0x26	; 38
    2c94:	bc 67       	ori	r27, 0x7C	; 124
    2c96:	c1 b3       	in	r28, 0x11	; 17
    2c98:	ce 66       	ori	r28, 0x6E	; 110
    2c9a:	80 b2       	in	r8, 0x10	; 16
    2c9c:	dd 65       	ori	r29, 0x5D	; 93
    2c9e:	41 b1       	in	r20, 0x01	; 1
    2ca0:	e7 64       	ori	r30, 0x47	; 71
    2ca2:	06 b0       	in	r0, 0x06	; 6
    2ca4:	ee 63       	ori	r30, 0x3E	; 62
    2ca6:	cd ae       	std	Y+61, r12	; 0x3d
    2ca8:	f1 62       	ori	r31, 0x21	; 33
    2caa:	98 ad       	ldd	r25, Y+56	; 0x38
    2cac:	f0 61       	ori	r31, 0x10	; 16
    2cae:	66 ac       	ldd	r6, Z+62	; 0x3e
    2cb0:	eb 60       	ori	r30, 0x0B	; 11
    2cb2:	37 ab       	std	Z+55, r19	; 0x37
    2cb4:	e2 5f       	subi	r30, 0xF2	; 242
    2cb6:	0c aa       	std	Y+52, r0	; 0x34
    2cb8:	d6 5e       	subi	r29, 0xE6	; 230
    2cba:	e3 a8       	ldd	r14, Z+51	; 0x33
    2cbc:	c6 5d       	subi	r28, 0xD6	; 214
    2cbe:	be a7       	std	Y+46, r27	; 0x2e
    2cc0:	b3 5c       	subi	r27, 0xC3	; 195
    2cc2:	9d a6       	std	Y+45, r9	; 0x2d
    2cc4:	9c 5b       	subi	r25, 0xBC	; 188
    2cc6:	7f a5       	ldd	r23, Y+47	; 0x2f
    2cc8:	81 5a       	subi	r24, 0xA1	; 161
    2cca:	64 a4       	ldd	r6, Z+44	; 0x2c
    2ccc:	63 59       	subi	r22, 0x93	; 147
    2cce:	4d a3       	std	Y+37, r20	; 0x25
    2cd0:	42 58       	subi	r20, 0x82	; 130
    2cd2:	3a a2       	std	Y+34, r3	; 0x22
    2cd4:	1d 57       	subi	r17, 0x7D	; 125
    2cd6:	2a a1       	ldd	r18, Y+34	; 0x22
    2cd8:	f5 55       	subi	r31, 0x55	; 85
    2cda:	1e a0       	ldd	r1, Y+38	; 0x26
    2cdc:	c9 54       	subi	r28, 0x49	; 73
    2cde:	15 9f       	mul	r17, r21
    2ce0:	9a 53       	subi	r25, 0x3A	; 58
    2ce2:	10 9e       	mul	r1, r16
    2ce4:	68 52       	subi	r22, 0x28	; 40
    2ce6:	0f 9d       	mul	r16, r15
    2ce8:	33 51       	subi	r19, 0x13	; 19
    2cea:	12 9c       	mul	r1, r2
    2cec:	fa 4f       	sbci	r31, 0xFA	; 250
    2cee:	19 9b       	sbis	0x03, 1	; 3
    2cf0:	bf 4e       	sbci	r27, 0xEF	; 239
    2cf2:	23 9a       	sbi	0x04, 3	; 4
    2cf4:	80 4d       	sbci	r24, 0xD0	; 208
    2cf6:	32 99       	sbic	0x06, 2	; 6
    2cf8:	3f 4c       	sbci	r19, 0xCF	; 207
    2cfa:	44 98       	cbi	0x08, 4	; 8
    2cfc:	fa 4a       	sbci	r31, 0xAA	; 170
    2cfe:	5b 97       	sbiw	r26, 0x1b	; 27
    2d00:	b3 49       	sbci	r27, 0x93	; 147
    2d02:	75 96       	adiw	r30, 0x15	; 21
    2d04:	69 48       	sbci	r22, 0x89	; 137
    2d06:	94 95       	.word	0x9594	; ????
    2d08:	1c 47       	sbci	r17, 0x7C	; 124
    2d0a:	b6 94       	lsr	r11
    2d0c:	cc 45       	sbci	r28, 0x5C	; 92
    2d0e:	dd 93       	st	X+, r29
    2d10:	7a 44       	sbci	r23, 0x4A	; 74
    2d12:	08 93       	.word	0x9308	; ????
    2d14:	25 43       	sbci	r18, 0x35	; 53
    2d16:	37 92       	lat	Z, r3
    2d18:	cd 41       	sbci	r28, 0x1D	; 29
    2d1a:	6b 91       	.word	0x916b	; ????
    2d1c:	73 40       	sbci	r23, 0x03	; 3
    2d1e:	a2 90       	ld	r10, -Z
    2d20:	16 3f       	cpi	r17, 0xF6	; 246
    2d22:	de 8f       	std	Y+30, r29	; 0x1e
    2d24:	b7 3d       	cpi	r27, 0xD7	; 215
    2d26:	1f 8f       	std	Y+31, r17	; 0x1f
    2d28:	56 3c       	cpi	r21, 0xC6	; 198
    2d2a:	63 8e       	std	Z+27, r6	; 0x1b
    2d2c:	f2 3a       	cpi	r31, 0xA2	; 162
    2d2e:	ac 8d       	ldd	r26, Y+28	; 0x1c
    2d30:	8c 39       	cpi	r24, 0x9C	; 156
    2d32:	fa 8c       	ldd	r15, Y+26	; 0x1a
    2d34:	24 38       	cpi	r18, 0x84	; 132
    2d36:	4c 8c       	ldd	r4, Y+28	; 0x1c
    2d38:	b9 36       	cpi	r27, 0x69	; 105
    2d3a:	a2 8b       	std	Z+18, r26	; 0x12
    2d3c:	4d 35       	cpi	r20, 0x5D	; 93
    2d3e:	fd 8a       	std	Y+21, r15	; 0x15
    2d40:	de 33       	cpi	r29, 0x3E	; 62
    2d42:	5c 8a       	std	Y+20, r5	; 0x14
    2d44:	6e 32       	cpi	r22, 0x2E	; 46
    2d46:	c0 89       	ldd	r28, Z+16	; 0x10
    2d48:	fb 30       	cpi	r31, 0x0B	; 11
    2d4a:	28 89       	ldd	r18, Y+16	; 0x10
    2d4c:	87 2f       	mov	r24, r23
    2d4e:	95 88       	ldd	r9, Z+21	; 0x15
    2d50:	10 2e       	mov	r1, r16
    2d52:	07 88       	ldd	r0, Z+23	; 0x17
    2d54:	98 2c       	mov	r9, r8
    2d56:	7d 87       	std	Y+13, r23	; 0x0d
    2d58:	1e 2b       	or	r17, r30
    2d5a:	f8 86       	std	Y+8, r15	; 0x08
    2d5c:	a3 29       	or	r26, r3
    2d5e:	77 86       	std	Z+15, r7	; 0x0f
    2d60:	26 28       	or	r2, r6
    2d62:	fc 85       	ldd	r31, Y+12	; 0x0c
    2d64:	a7 26       	eor	r10, r23
    2d66:	84 85       	ldd	r24, Z+12	; 0x0c
    2d68:	27 25       	eor	r18, r7
    2d6a:	12 85       	ldd	r17, Z+10	; 0x0a
    2d6c:	a6 23       	and	r26, r22
    2d6e:	a4 84       	ldd	r10, Z+12	; 0x0c
    2d70:	23 22       	and	r2, r19
    2d72:	3c 84       	ldd	r3, Y+12	; 0x0c
    2d74:	9f 20       	and	r9, r15
    2d76:	d8 83       	st	Y, r29
    2d78:	19 1f       	adc	r17, r25
    2d7a:	78 83       	st	Y, r23
    2d7c:	93 1d       	adc	r25, r3
    2d7e:	1e 83       	std	Y+6, r17	; 0x06
    2d80:	0b 1c       	adc	r0, r11
    2d82:	c8 82       	st	Y, r12
    2d84:	82 1a       	sub	r8, r18
    2d86:	77 82       	std	Z+7, r7	; 0x07
    2d88:	f8 18       	sub	r15, r8
    2d8a:	2b 82       	std	Y+3, r2	; 0x03
    2d8c:	6d 17       	cp	r22, r29
    2d8e:	e4 81       	ldd	r30, Z+4	; 0x04
    2d90:	e1 15       	cp	r30, r1
    2d92:	a2 81       	ldd	r26, Z+2	; 0x02
    2d94:	55 14       	cp	r5, r5
    2d96:	64 81       	ldd	r22, Z+4	; 0x04
    2d98:	c7 12       	cpse	r12, r23
    2d9a:	2c 81       	ldd	r18, Y+4	; 0x04
    2d9c:	39 11       	cpse	r19, r9
    2d9e:	f8 80       	ld	r15, Y
    2da0:	ab 0f       	add	r26, r27
    2da2:	c9 80       	ldd	r12, Y+1	; 0x01
    2da4:	1b 0e       	add	r1, r27
    2da6:	9f 80       	ldd	r9, Y+7	; 0x07
    2da8:	8b 0c       	add	r8, r11
    2daa:	7a 80       	ldd	r7, Y+2	; 0x02
    2dac:	fb 0a       	sbc	r15, r27
    2dae:	5a 80       	ldd	r5, Y+2	; 0x02
    2db0:	6a 09       	sbc	r22, r10
    2db2:	3f 80       	ldd	r3, Y+7	; 0x07
    2db4:	d9 07       	cpc	r29, r25
    2db6:	29 80       	ldd	r2, Y+1	; 0x01
    2db8:	47 06       	cpc	r4, r23
    2dba:	18 80       	ld	r1, Y
    2dbc:	b6 04       	cpc	r11, r6
    2dbe:	0b 80       	ldd	r0, Y+3	; 0x03
    2dc0:	24 03       	mulsu	r18, r20
    2dc2:	04 80       	ldd	r0, Z+4	; 0x04
    2dc4:	92 01       	movw	r18, r4

00002dc6 <tbl_bitrev>:
    2dc6:	00 00       	nop
    2dc8:	00 04       	cpc	r0, r0
    2dca:	00 02       	muls	r16, r16
    2dcc:	00 06       	cpc	r0, r16
    2dce:	00 01       	movw	r0, r0
    2dd0:	00 05       	cpc	r16, r0
    2dd2:	00 03       	mulsu	r16, r16
    2dd4:	00 07       	cpc	r16, r16
    2dd6:	80 00       	.word	0x0080	; ????
    2dd8:	80 04       	cpc	r8, r0
    2dda:	80 02       	muls	r24, r16
    2ddc:	80 06       	cpc	r8, r16
    2dde:	80 01       	movw	r16, r0
    2de0:	80 05       	cpc	r24, r0
    2de2:	80 03       	fmuls	r16, r16
    2de4:	80 07       	cpc	r24, r16
    2de6:	40 00       	.word	0x0040	; ????
    2de8:	40 04       	cpc	r4, r0
    2dea:	40 02       	muls	r20, r16
    2dec:	40 06       	cpc	r4, r16
    2dee:	40 01       	movw	r8, r0
    2df0:	40 05       	cpc	r20, r0
    2df2:	40 03       	mulsu	r20, r16
    2df4:	40 07       	cpc	r20, r16
    2df6:	c0 00       	.word	0x00c0	; ????
    2df8:	c0 04       	cpc	r12, r0
    2dfa:	c0 02       	muls	r28, r16
    2dfc:	c0 06       	cpc	r12, r16
    2dfe:	c0 01       	movw	r24, r0
    2e00:	c0 05       	cpc	r28, r0
    2e02:	c0 03       	fmuls	r20, r16
    2e04:	c0 07       	cpc	r28, r16
    2e06:	20 00       	.word	0x0020	; ????
    2e08:	20 04       	cpc	r2, r0
    2e0a:	20 02       	muls	r18, r16
    2e0c:	20 06       	cpc	r2, r16
    2e0e:	20 01       	movw	r4, r0
    2e10:	20 05       	cpc	r18, r0
    2e12:	20 03       	mulsu	r18, r16
    2e14:	20 07       	cpc	r18, r16
    2e16:	a0 00       	.word	0x00a0	; ????
    2e18:	a0 04       	cpc	r10, r0
    2e1a:	a0 02       	muls	r26, r16
    2e1c:	a0 06       	cpc	r10, r16
    2e1e:	a0 01       	movw	r20, r0
    2e20:	a0 05       	cpc	r26, r0
    2e22:	a0 03       	fmuls	r18, r16
    2e24:	a0 07       	cpc	r26, r16
    2e26:	60 00       	.word	0x0060	; ????
    2e28:	60 04       	cpc	r6, r0
    2e2a:	60 02       	muls	r22, r16
    2e2c:	60 06       	cpc	r6, r16
    2e2e:	60 01       	movw	r12, r0
    2e30:	60 05       	cpc	r22, r0
    2e32:	60 03       	mulsu	r22, r16
    2e34:	60 07       	cpc	r22, r16
    2e36:	e0 00       	.word	0x00e0	; ????
    2e38:	e0 04       	cpc	r14, r0
    2e3a:	e0 02       	muls	r30, r16
    2e3c:	e0 06       	cpc	r14, r16
    2e3e:	e0 01       	movw	r28, r0
    2e40:	e0 05       	cpc	r30, r0
    2e42:	e0 03       	fmuls	r22, r16
    2e44:	e0 07       	cpc	r30, r16
    2e46:	10 00       	.word	0x0010	; ????
    2e48:	10 04       	cpc	r1, r0
    2e4a:	10 02       	muls	r17, r16
    2e4c:	10 06       	cpc	r1, r16
    2e4e:	10 01       	movw	r2, r0
    2e50:	10 05       	cpc	r17, r0
    2e52:	10 03       	mulsu	r17, r16
    2e54:	10 07       	cpc	r17, r16
    2e56:	90 00       	.word	0x0090	; ????
    2e58:	90 04       	cpc	r9, r0
    2e5a:	90 02       	muls	r25, r16
    2e5c:	90 06       	cpc	r9, r16
    2e5e:	90 01       	movw	r18, r0
    2e60:	90 05       	cpc	r25, r0
    2e62:	90 03       	fmuls	r17, r16
    2e64:	90 07       	cpc	r25, r16
    2e66:	50 00       	.word	0x0050	; ????
    2e68:	50 04       	cpc	r5, r0
    2e6a:	50 02       	muls	r21, r16
    2e6c:	50 06       	cpc	r5, r16
    2e6e:	50 01       	movw	r10, r0
    2e70:	50 05       	cpc	r21, r0
    2e72:	50 03       	mulsu	r21, r16
    2e74:	50 07       	cpc	r21, r16
    2e76:	d0 00       	.word	0x00d0	; ????
    2e78:	d0 04       	cpc	r13, r0
    2e7a:	d0 02       	muls	r29, r16
    2e7c:	d0 06       	cpc	r13, r16
    2e7e:	d0 01       	movw	r26, r0
    2e80:	d0 05       	cpc	r29, r0
    2e82:	d0 03       	fmuls	r21, r16
    2e84:	d0 07       	cpc	r29, r16
    2e86:	30 00       	.word	0x0030	; ????
    2e88:	30 04       	cpc	r3, r0
    2e8a:	30 02       	muls	r19, r16
    2e8c:	30 06       	cpc	r3, r16
    2e8e:	30 01       	movw	r6, r0
    2e90:	30 05       	cpc	r19, r0
    2e92:	30 03       	mulsu	r19, r16
    2e94:	30 07       	cpc	r19, r16
    2e96:	b0 00       	.word	0x00b0	; ????
    2e98:	b0 04       	cpc	r11, r0
    2e9a:	b0 02       	muls	r27, r16
    2e9c:	b0 06       	cpc	r11, r16
    2e9e:	b0 01       	movw	r22, r0
    2ea0:	b0 05       	cpc	r27, r0
    2ea2:	b0 03       	fmuls	r19, r16
    2ea4:	b0 07       	cpc	r27, r16
    2ea6:	70 00       	.word	0x0070	; ????
    2ea8:	70 04       	cpc	r7, r0
    2eaa:	70 02       	muls	r23, r16
    2eac:	70 06       	cpc	r7, r16
    2eae:	70 01       	movw	r14, r0
    2eb0:	70 05       	cpc	r23, r0
    2eb2:	70 03       	mulsu	r23, r16
    2eb4:	70 07       	cpc	r23, r16
    2eb6:	f0 00       	.word	0x00f0	; ????
    2eb8:	f0 04       	cpc	r15, r0
    2eba:	f0 02       	muls	r31, r16
    2ebc:	f0 06       	cpc	r15, r16
    2ebe:	f0 01       	movw	r30, r0
    2ec0:	f0 05       	cpc	r31, r0
    2ec2:	f0 03       	fmuls	r23, r16
    2ec4:	f0 07       	cpc	r31, r16
    2ec6:	08 00       	.word	0x0008	; ????
    2ec8:	08 04       	cpc	r0, r8
    2eca:	08 02       	muls	r16, r24
    2ecc:	08 06       	cpc	r0, r24
    2ece:	08 01       	movw	r0, r16
    2ed0:	08 05       	cpc	r16, r8
    2ed2:	08 03       	fmul	r16, r16
    2ed4:	08 07       	cpc	r16, r24
    2ed6:	88 00       	.word	0x0088	; ????
    2ed8:	88 04       	cpc	r8, r8
    2eda:	88 02       	muls	r24, r24
    2edc:	88 06       	cpc	r8, r24
    2ede:	88 01       	movw	r16, r16
    2ee0:	88 05       	cpc	r24, r8
    2ee2:	88 03       	fmulsu	r16, r16
    2ee4:	88 07       	cpc	r24, r24
    2ee6:	48 00       	.word	0x0048	; ????
    2ee8:	48 04       	cpc	r4, r8
    2eea:	48 02       	muls	r20, r24
    2eec:	48 06       	cpc	r4, r24
    2eee:	48 01       	movw	r8, r16
    2ef0:	48 05       	cpc	r20, r8
    2ef2:	48 03       	fmul	r20, r16
    2ef4:	48 07       	cpc	r20, r24
    2ef6:	c8 00       	.word	0x00c8	; ????
    2ef8:	c8 04       	cpc	r12, r8
    2efa:	c8 02       	muls	r28, r24
    2efc:	c8 06       	cpc	r12, r24
    2efe:	c8 01       	movw	r24, r16
    2f00:	c8 05       	cpc	r28, r8
    2f02:	c8 03       	fmulsu	r20, r16
    2f04:	c8 07       	cpc	r28, r24
    2f06:	28 00       	.word	0x0028	; ????
    2f08:	28 04       	cpc	r2, r8
    2f0a:	28 02       	muls	r18, r24
    2f0c:	28 06       	cpc	r2, r24
    2f0e:	28 01       	movw	r4, r16
    2f10:	28 05       	cpc	r18, r8
    2f12:	28 03       	fmul	r18, r16
    2f14:	28 07       	cpc	r18, r24
    2f16:	a8 00       	.word	0x00a8	; ????
    2f18:	a8 04       	cpc	r10, r8
    2f1a:	a8 02       	muls	r26, r24
    2f1c:	a8 06       	cpc	r10, r24
    2f1e:	a8 01       	movw	r20, r16
    2f20:	a8 05       	cpc	r26, r8
    2f22:	a8 03       	fmulsu	r18, r16
    2f24:	a8 07       	cpc	r26, r24
    2f26:	68 00       	.word	0x0068	; ????
    2f28:	68 04       	cpc	r6, r8
    2f2a:	68 02       	muls	r22, r24
    2f2c:	68 06       	cpc	r6, r24
    2f2e:	68 01       	movw	r12, r16
    2f30:	68 05       	cpc	r22, r8
    2f32:	68 03       	fmul	r22, r16
    2f34:	68 07       	cpc	r22, r24
    2f36:	e8 00       	.word	0x00e8	; ????
    2f38:	e8 04       	cpc	r14, r8
    2f3a:	e8 02       	muls	r30, r24
    2f3c:	e8 06       	cpc	r14, r24
    2f3e:	e8 01       	movw	r28, r16
    2f40:	e8 05       	cpc	r30, r8
    2f42:	e8 03       	fmulsu	r22, r16
    2f44:	e8 07       	cpc	r30, r24
    2f46:	18 00       	.word	0x0018	; ????
    2f48:	18 04       	cpc	r1, r8
    2f4a:	18 02       	muls	r17, r24
    2f4c:	18 06       	cpc	r1, r24
    2f4e:	18 01       	movw	r2, r16
    2f50:	18 05       	cpc	r17, r8
    2f52:	18 03       	fmul	r17, r16
    2f54:	18 07       	cpc	r17, r24
    2f56:	98 00       	.word	0x0098	; ????
    2f58:	98 04       	cpc	r9, r8
    2f5a:	98 02       	muls	r25, r24
    2f5c:	98 06       	cpc	r9, r24
    2f5e:	98 01       	movw	r18, r16
    2f60:	98 05       	cpc	r25, r8
    2f62:	98 03       	fmulsu	r17, r16
    2f64:	98 07       	cpc	r25, r24
    2f66:	58 00       	.word	0x0058	; ????
    2f68:	58 04       	cpc	r5, r8
    2f6a:	58 02       	muls	r21, r24
    2f6c:	58 06       	cpc	r5, r24
    2f6e:	58 01       	movw	r10, r16
    2f70:	58 05       	cpc	r21, r8
    2f72:	58 03       	fmul	r21, r16
    2f74:	58 07       	cpc	r21, r24
    2f76:	d8 00       	.word	0x00d8	; ????
    2f78:	d8 04       	cpc	r13, r8
    2f7a:	d8 02       	muls	r29, r24
    2f7c:	d8 06       	cpc	r13, r24
    2f7e:	d8 01       	movw	r26, r16
    2f80:	d8 05       	cpc	r29, r8
    2f82:	d8 03       	fmulsu	r21, r16
    2f84:	d8 07       	cpc	r29, r24
    2f86:	38 00       	.word	0x0038	; ????
    2f88:	38 04       	cpc	r3, r8
    2f8a:	38 02       	muls	r19, r24
    2f8c:	38 06       	cpc	r3, r24
    2f8e:	38 01       	movw	r6, r16
    2f90:	38 05       	cpc	r19, r8
    2f92:	38 03       	fmul	r19, r16
    2f94:	38 07       	cpc	r19, r24
    2f96:	b8 00       	.word	0x00b8	; ????
    2f98:	b8 04       	cpc	r11, r8
    2f9a:	b8 02       	muls	r27, r24
    2f9c:	b8 06       	cpc	r11, r24
    2f9e:	b8 01       	movw	r22, r16
    2fa0:	b8 05       	cpc	r27, r8
    2fa2:	b8 03       	fmulsu	r19, r16
    2fa4:	b8 07       	cpc	r27, r24
    2fa6:	78 00       	.word	0x0078	; ????
    2fa8:	78 04       	cpc	r7, r8
    2faa:	78 02       	muls	r23, r24
    2fac:	78 06       	cpc	r7, r24
    2fae:	78 01       	movw	r14, r16
    2fb0:	78 05       	cpc	r23, r8
    2fb2:	78 03       	fmul	r23, r16
    2fb4:	78 07       	cpc	r23, r24
    2fb6:	f8 00       	.word	0x00f8	; ????
    2fb8:	f8 04       	cpc	r15, r8
    2fba:	f8 02       	muls	r31, r24
    2fbc:	f8 06       	cpc	r15, r24
    2fbe:	f8 01       	movw	r30, r16
    2fc0:	f8 05       	cpc	r31, r8
    2fc2:	f8 03       	fmulsu	r23, r16
    2fc4:	f8 07       	cpc	r31, r24

00002fc6 <fft_input_512>:
;----------------------------------------------------------------------------;
#ifndef INPUT_NOISE
.global fft_input_512
.func fft_input_512
fft_input_512:
	pushw	T2H,T2L
    2fc6:	3f 92       	push	r3
    2fc8:	2f 92       	push	r2
	pushw	AH,AL
    2fca:	1f 93       	push	r17
    2fcc:	0f 93       	push	r16
	pushw	YH,YL
    2fce:	df 93       	push	r29
    2fd0:	cf 93       	push	r28

	movw	XL, EL				;X = array_src;
    2fd2:	dc 01       	movw	r26, r24
	movw	YL, DL				;Y = array_bfly;
    2fd4:	eb 01       	movw	r28, r22
	clr	EH				;Zero
    2fd6:	99 27       	eor	r25, r25
	ldiw	ZH,ZL, tbl_window_512		;Z = &tbl_window[0];
    2fd8:	e6 ec       	ldi	r30, 0xC6	; 198
    2fda:	f5 e2       	ldi	r31, 0x25	; 37
	ldiw	AH,AL, FFT_N_512			;A = FFT_N;
    2fdc:	00 e0       	ldi	r16, 0x00	; 0
    2fde:	12 e0       	ldi	r17, 0x02	; 2
1:	lpmw	BH,BL, Z+			;B = *Z++; (window)
    2fe0:	25 91       	lpm	r18, Z+
    2fe2:	35 91       	lpm	r19, Z+
	ldw	CH,CL, X+			;C = *X++; (I-axis)
    2fe4:	4d 91       	ld	r20, X+
    2fe6:	5d 91       	ld	r21, X+
	FMULS16	DH,DL,T2H,T2L, BH,BL, CH,CL	;D = B * C;
    2fe8:	b5 03       	fmuls	r19, r21
    2fea:	b0 01       	movw	r22, r0
    2fec:	2c 03       	fmul	r18, r20
    2fee:	10 01       	movw	r2, r0
    2ff0:	69 1f       	adc	r22, r25
    2ff2:	bc 03       	fmulsu	r19, r20
    2ff4:	79 0b       	sbc	r23, r25
    2ff6:	30 0c       	add	r3, r0
    2ff8:	61 1d       	adc	r22, r1
    2ffa:	79 1f       	adc	r23, r25
    2ffc:	da 03       	fmulsu	r21, r18
    2ffe:	79 0b       	sbc	r23, r25
    3000:	30 0c       	add	r3, r0
    3002:	61 1d       	adc	r22, r1
    3004:	79 1f       	adc	r23, r25
	stw	Y+, DH,DL			;*Y++ = D;
    3006:	69 93       	st	Y+, r22
    3008:	79 93       	st	Y+, r23
#ifdef INPUT_IQ
	ldw	CH,CL, X+			;C = *X++; (Q-axis)
	FMULS16	DH,DL,T2H,T2L, BH,BL, CH,CL	;D = B * C;
#endif
	stw	Y+, DH,DL			;*Y++ = D;
    300a:	69 93       	st	Y+, r22
    300c:	79 93       	st	Y+, r23
	subiw	AH,AL, 1			;while(--A)
    300e:	01 50       	subi	r16, 0x01	; 1
    3010:	10 40       	sbci	r17, 0x00	; 0
	brne	1b				;/
    3012:	31 f7       	brne	.-52     	; 0x2fe0 <fft_input_512+0x1a>

	popw	YH,YL
    3014:	cf 91       	pop	r28
    3016:	df 91       	pop	r29
	popw	AH,AL
    3018:	0f 91       	pop	r16
    301a:	1f 91       	pop	r17
	popw	T2H,T2L
    301c:	2f 90       	pop	r2
    301e:	3f 90       	pop	r3
	clr	r1
    3020:	11 24       	eor	r1, r1
	ret
    3022:	08 95       	ret

00003024 <fft_execute_512>:

;----------------------------------------------------------------------------;
.global fft_execute_512
.func fft_execute_512
fft_execute_512:
	pushw	T2H,T2L
    3024:	3f 92       	push	r3
    3026:	2f 92       	push	r2
	pushw	T4H,T4L
    3028:	5f 92       	push	r5
    302a:	4f 92       	push	r4
	pushw	T6H,T6L
    302c:	7f 92       	push	r7
    302e:	6f 92       	push	r6
	pushw	T8H,T8L
    3030:	9f 92       	push	r9
    3032:	8f 92       	push	r8
	pushw	T10H,T10L
    3034:	bf 92       	push	r11
    3036:	af 92       	push	r10
	pushw	T12H,T12L
    3038:	df 92       	push	r13
    303a:	cf 92       	push	r12
	pushw	T14H,T14L
    303c:	ff 92       	push	r15
    303e:	ef 92       	push	r14
	pushw	AH,AL
    3040:	1f 93       	push	r17
    3042:	0f 93       	push	r16
	pushw	YH,YL
    3044:	df 93       	push	r29
    3046:	cf 93       	push	r28

	movw	ZL, EL				;Z = array_bfly;
    3048:	fc 01       	movw	r30, r24
	ldiw	EH,EL, 1			;E = 1;
    304a:	81 e0       	ldi	r24, 0x01	; 1
    304c:	90 e0       	ldi	r25, 0x00	; 0
	ldiw	XH,XL, FFT_N_512/2			;X = FFT_N/2;
    304e:	a0 e0       	ldi	r26, 0x00	; 0
    3050:	b1 e0       	ldi	r27, 0x01	; 1
1:	ldi	AL, 4				;T12 = E; (angular speed)
    3052:	04 e0       	ldi	r16, 0x04	; 4
	mul	EL, AL				;
    3054:	80 9f       	mul	r24, r16
	movw	T12L, T0L			;
    3056:	60 01       	movw	r12, r0
	mul	EH, AL				;
    3058:	90 9f       	mul	r25, r16
	add	T12H, T0L			;/
    305a:	d0 0c       	add	r13, r0
	movw	T14L, EL			;T14 = E;
    305c:	7c 01       	movw	r14, r24
	pushw	EH,EL
    305e:	9f 93       	push	r25
    3060:	8f 93       	push	r24
	movw	YL, ZL				;Z = &array_bfly[0];
    3062:	ef 01       	movw	r28, r30
	mul	XL, AL				;Y = &array_bfly[X];
    3064:	a0 9f       	mul	r26, r16
	addw	YH,YL, T0H,T0L			;
    3066:	c0 0d       	add	r28, r0
    3068:	d1 1d       	adc	r29, r1
	mul	XH, AL				;
    306a:	b0 9f       	mul	r27, r16
	add	YH, T0L				;/
    306c:	d0 0d       	add	r29, r0
	pushw	ZH,ZL
    306e:	ff 93       	push	r31
    3070:	ef 93       	push	r30
2:	clrw	T10H,T10L			;T10 = 0 (angle)
    3072:	bb 24       	eor	r11, r11
    3074:	aa 24       	eor	r10, r10
	clr	EH				;Zero reg.
    3076:	99 27       	eor	r25, r25
3:	lddw	AH,AL, Z+0			;A = *Z - *Y; *Z++ += *Y;
    3078:	00 81       	ld	r16, Z
    307a:	11 81       	ldd	r17, Z+1	; 0x01
	asrw	AH,AL				;
    307c:	15 95       	asr	r17
    307e:	07 95       	ror	r16
	lddw	DH,DL, Y+0			;
    3080:	68 81       	ld	r22, Y
    3082:	79 81       	ldd	r23, Y+1	; 0x01
	asrw	DH,DL				;
    3084:	75 95       	asr	r23
    3086:	67 95       	ror	r22
	movw	CL, AL				;
    3088:	a8 01       	movw	r20, r16
	subw	AH,AL, DH,DL			;
    308a:	06 1b       	sub	r16, r22
    308c:	17 0b       	sbc	r17, r23
	addw	CH,CL, DH,DL			;
    308e:	46 0f       	add	r20, r22
    3090:	57 1f       	adc	r21, r23
	stw	Z+, CH,CL			;/
    3092:	41 93       	st	Z+, r20
    3094:	51 93       	st	Z+, r21
	lddw	BH,BL, Z+0			;B = *Z - *Y; *Z++ += *Y;
    3096:	20 81       	ld	r18, Z
    3098:	31 81       	ldd	r19, Z+1	; 0x01
	asrw	BH,BL				;
    309a:	35 95       	asr	r19
    309c:	27 95       	ror	r18
	lddw	DH,DL, Y+2			;
    309e:	6a 81       	ldd	r22, Y+2	; 0x02
    30a0:	7b 81       	ldd	r23, Y+3	; 0x03
	asrw	DH,DL				;
    30a2:	75 95       	asr	r23
    30a4:	67 95       	ror	r22
	movw	CL, BL				;
    30a6:	a9 01       	movw	r20, r18
	subw	BH,BL, DH,DL			;
    30a8:	26 1b       	sub	r18, r22
    30aa:	37 0b       	sbc	r19, r23
	addw	CH,CL, DH,DL			;
    30ac:	46 0f       	add	r20, r22
    30ae:	57 1f       	adc	r21, r23
	stw	Z+, CH,CL			;/
    30b0:	41 93       	st	Z+, r20
    30b2:	51 93       	st	Z+, r21
	movw	T0L, ZL
    30b4:	0f 01       	movw	r0, r30
	ldiw	ZH,ZL, tbl_cos_sin		;C = cos(T10); D = sin(T10);
    30b6:	e6 ec       	ldi	r30, 0xC6	; 198
    30b8:	f9 e2       	ldi	r31, 0x29	; 41
	addw	ZH,ZL, T10H,T10L		;
    30ba:	ea 0d       	add	r30, r10
    30bc:	fb 1d       	adc	r31, r11
	lpmw	CH,CL, Z+			;
    30be:	45 91       	lpm	r20, Z+
    30c0:	55 91       	lpm	r21, Z+
	lpmw	DH,DL, Z+			;/
    30c2:	65 91       	lpm	r22, Z+
    30c4:	75 91       	lpm	r23, Z+
	movw	ZL, T0L
    30c6:	f0 01       	movw	r30, r0
	FMULS16	T4H,T4L,T2H,T2L, AH,AL, CH,CL	;*Y++ = A * C + B * D;
    30c8:	95 03       	fmuls	r17, r21
    30ca:	20 01       	movw	r4, r0
    30cc:	0c 03       	fmul	r16, r20
    30ce:	10 01       	movw	r2, r0
    30d0:	49 1e       	adc	r4, r25
    30d2:	9c 03       	fmulsu	r17, r20
    30d4:	59 0a       	sbc	r5, r25
    30d6:	30 0c       	add	r3, r0
    30d8:	41 1c       	adc	r4, r1
    30da:	59 1e       	adc	r5, r25
    30dc:	d8 03       	fmulsu	r21, r16
    30de:	59 0a       	sbc	r5, r25
    30e0:	30 0c       	add	r3, r0
    30e2:	41 1c       	adc	r4, r1
    30e4:	59 1e       	adc	r5, r25
	FMULS16	T8H,T8L,T6H,T6L, BH,BL, DH,DL	;
    30e6:	b7 03       	fmuls	r19, r23
    30e8:	40 01       	movw	r8, r0
    30ea:	2e 03       	fmul	r18, r22
    30ec:	30 01       	movw	r6, r0
    30ee:	89 1e       	adc	r8, r25
    30f0:	be 03       	fmulsu	r19, r22
    30f2:	99 0a       	sbc	r9, r25
    30f4:	70 0c       	add	r7, r0
    30f6:	81 1c       	adc	r8, r1
    30f8:	99 1e       	adc	r9, r25
    30fa:	fa 03       	fmulsu	r23, r18
    30fc:	99 0a       	sbc	r9, r25
    30fe:	70 0c       	add	r7, r0
    3100:	81 1c       	adc	r8, r1
    3102:	99 1e       	adc	r9, r25
	addd	T4H,T4L,T2H,T2L, T8H,T8L,T6H,T6L;
    3104:	26 0c       	add	r2, r6
    3106:	37 1c       	adc	r3, r7
    3108:	48 1c       	adc	r4, r8
    310a:	59 1c       	adc	r5, r9
	stw	Y+, T4H,T4L			;/
    310c:	49 92       	st	Y+, r4
    310e:	59 92       	st	Y+, r5
	FMULS16	T4H,T4L,T2H,T2L, BH,BL, CH,CL 	;*Y++ = B * C - A * D;
    3110:	b5 03       	fmuls	r19, r21
    3112:	20 01       	movw	r4, r0
    3114:	2c 03       	fmul	r18, r20
    3116:	10 01       	movw	r2, r0
    3118:	49 1e       	adc	r4, r25
    311a:	bc 03       	fmulsu	r19, r20
    311c:	59 0a       	sbc	r5, r25
    311e:	30 0c       	add	r3, r0
    3120:	41 1c       	adc	r4, r1
    3122:	59 1e       	adc	r5, r25
    3124:	da 03       	fmulsu	r21, r18
    3126:	59 0a       	sbc	r5, r25
    3128:	30 0c       	add	r3, r0
    312a:	41 1c       	adc	r4, r1
    312c:	59 1e       	adc	r5, r25
	FMULS16	T8H,T8L,T6H,T6L, AH,AL, DH,DL 	;
    312e:	97 03       	fmuls	r17, r23
    3130:	40 01       	movw	r8, r0
    3132:	0e 03       	fmul	r16, r22
    3134:	30 01       	movw	r6, r0
    3136:	89 1e       	adc	r8, r25
    3138:	9e 03       	fmulsu	r17, r22
    313a:	99 0a       	sbc	r9, r25
    313c:	70 0c       	add	r7, r0
    313e:	81 1c       	adc	r8, r1
    3140:	99 1e       	adc	r9, r25
    3142:	f8 03       	fmulsu	r23, r16
    3144:	99 0a       	sbc	r9, r25
    3146:	70 0c       	add	r7, r0
    3148:	81 1c       	adc	r8, r1
    314a:	99 1e       	adc	r9, r25
	subd	T4H,T4L,T2H,T2L, T8H,T8L,T6H,T6L;
    314c:	26 18       	sub	r2, r6
    314e:	37 08       	sbc	r3, r7
    3150:	48 08       	sbc	r4, r8
    3152:	59 08       	sbc	r5, r9
	stw	Y+, T4H,T4L			;/
    3154:	49 92       	st	Y+, r4
    3156:	59 92       	st	Y+, r5
	addw	T10H,T10L, T12H,T12L		;T10 += T12; (next angle)
    3158:	ac 0c       	add	r10, r12
    315a:	bd 1c       	adc	r11, r13
#if FFT_N_512 >= 128
	sbrs	T10H, FFT_B_512 - 7			;while(T10 < pi)
    315c:	b2 fe       	sbrs	r11, 2
#else
	sbrs	T10L, FFT_B_512 + 1
#endif
	rjmp	3b				;/
    315e:	8c cf       	rjmp	.-232    	; 0x3078 <fft_execute_512+0x54>
	ldi	AL, 4				;Y += X; Z += X; (skip split segment)
    3160:	04 e0       	ldi	r16, 0x04	; 4
	mul	XL, AL
    3162:	a0 9f       	mul	r26, r16
	addw	YH,YL, T0H,T0L			;
    3164:	c0 0d       	add	r28, r0
    3166:	d1 1d       	adc	r29, r1
	addw	ZH,ZL, T0H,T0L			;
    3168:	e0 0d       	add	r30, r0
    316a:	f1 1d       	adc	r31, r1
	mul	XH, AL				;
    316c:	b0 9f       	mul	r27, r16
	add	YH, T0L				;
    316e:	d0 0d       	add	r29, r0
	add	ZH, T0L				;/
    3170:	f0 0d       	add	r31, r0
	ldi	EL, 1				;while(--T14)
    3172:	81 e0       	ldi	r24, 0x01	; 1
	subw	T14H,T14L, EH,EL		;
    3174:	e8 1a       	sub	r14, r24
    3176:	f9 0a       	sbc	r15, r25
	rjne	2b				;/
    3178:	09 f0       	breq	.+2      	; 0x317c <fft_execute_512+0x158>
    317a:	7b cf       	rjmp	.-266    	; 0x3072 <fft_execute_512+0x4e>
	popw	ZH,ZL
    317c:	ef 91       	pop	r30
    317e:	ff 91       	pop	r31
	popw	EH,EL
    3180:	8f 91       	pop	r24
    3182:	9f 91       	pop	r25
	lslw	EH,EL				;E *= 2;
    3184:	88 0f       	add	r24, r24
    3186:	99 1f       	adc	r25, r25
	lsrw	XH,XL				;while(X /= 2)
    3188:	b6 95       	lsr	r27
    318a:	a7 95       	ror	r26
	adiw	XL, 0				;
    318c:	10 96       	adiw	r26, 0x00	; 0
	rjne	1b				;/
    318e:	09 f0       	breq	.+2      	; 0x3192 <fft_execute_512+0x16e>
    3190:	60 cf       	rjmp	.-320    	; 0x3052 <fft_execute_512+0x2e>

	popw	YH,YL
    3192:	cf 91       	pop	r28
    3194:	df 91       	pop	r29
	popw	AH,AL
    3196:	0f 91       	pop	r16
    3198:	1f 91       	pop	r17
	popw	T14H,T14L
    319a:	ef 90       	pop	r14
    319c:	ff 90       	pop	r15
	popw	T12H,T12L
    319e:	cf 90       	pop	r12
    31a0:	df 90       	pop	r13
	popw	T10H,T10L
    31a2:	af 90       	pop	r10
    31a4:	bf 90       	pop	r11
	popw	T8H,T8L
    31a6:	8f 90       	pop	r8
    31a8:	9f 90       	pop	r9
	popw	T6H,T6L
    31aa:	6f 90       	pop	r6
    31ac:	7f 90       	pop	r7
	popw	T4H,T4L
    31ae:	4f 90       	pop	r4
    31b0:	5f 90       	pop	r5
	popw	T2H,T2L
    31b2:	2f 90       	pop	r2
    31b4:	3f 90       	pop	r3
;	clr	r1
	ret
    31b6:	08 95       	ret

000031b8 <fft_output_512>:

;----------------------------------------------------------------------------;
.global fft_output_512
.func fft_output_512
fft_output_512:
	pushw	T2H,T2L
    31b8:	3f 92       	push	r3
    31ba:	2f 92       	push	r2
	pushw	T4H,T4L
    31bc:	5f 92       	push	r5
    31be:	4f 92       	push	r4
	pushw	T6H,T6L
    31c0:	7f 92       	push	r7
    31c2:	6f 92       	push	r6
	pushw	T8H,T8L
    31c4:	9f 92       	push	r9
    31c6:	8f 92       	push	r8
	pushw	T10H,T10L
    31c8:	bf 92       	push	r11
    31ca:	af 92       	push	r10
	pushw	AH,AL
    31cc:	1f 93       	push	r17
    31ce:	0f 93       	push	r16
	pushw	YH,YL
    31d0:	df 93       	push	r29
    31d2:	cf 93       	push	r28

	movw	T10L, EL			;T10 = array_bfly;
    31d4:	5c 01       	movw	r10, r24
	movw	YL, DL				;Y = array_output;
    31d6:	eb 01       	movw	r28, r22
	ldiw	ZH,ZL, tbl_bitrev		;Z = tbl_bitrev;
    31d8:	e6 ec       	ldi	r30, 0xC6	; 198
    31da:	fd e2       	ldi	r31, 0x2D	; 45
	clr	EH				;Zero
    31dc:	99 27       	eor	r25, r25
#ifdef INPUT_IQ
	ldiw	AH,AL, FFT_N_512			;A = FFT_N; (plus/minus)
#else
	ldiw	AH,AL, FFT_N_512 / 2		;A = FFT_N / 2; (plus only)
    31de:	00 e0       	ldi	r16, 0x00	; 0
    31e0:	11 e0       	ldi	r17, 0x01	; 1
#endif
1:	lpmw	XH,XL, Z+			;X = *Z++;
    31e2:	a5 91       	lpm	r26, Z+
    31e4:	b5 91       	lpm	r27, Z+
	addw	XH,XL, T10H,T10L		;X += array_bfly;
    31e6:	aa 0d       	add	r26, r10
    31e8:	bb 1d       	adc	r27, r11
	ldw	BH,BL, X+			;B = *X++;
    31ea:	2d 91       	ld	r18, X+
    31ec:	3d 91       	ld	r19, X+
	ldw	CH,CL, X+			;C = *X++;
    31ee:	4d 91       	ld	r20, X+
    31f0:	5d 91       	ld	r21, X+
	FMULS16	T4H,T4L,T2H,T2L, BH,BL, BH,BL	;T4:T2 = B * B;
    31f2:	b3 03       	fmuls	r19, r19
    31f4:	20 01       	movw	r4, r0
    31f6:	2a 03       	fmul	r18, r18
    31f8:	10 01       	movw	r2, r0
    31fa:	49 1e       	adc	r4, r25
    31fc:	ba 03       	fmulsu	r19, r18
    31fe:	59 0a       	sbc	r5, r25
    3200:	30 0c       	add	r3, r0
    3202:	41 1c       	adc	r4, r1
    3204:	59 1e       	adc	r5, r25
    3206:	ba 03       	fmulsu	r19, r18
    3208:	59 0a       	sbc	r5, r25
    320a:	30 0c       	add	r3, r0
    320c:	41 1c       	adc	r4, r1
    320e:	59 1e       	adc	r5, r25
	FMULS16	T8H,T8L,T6H,T6L, CH,CL, CH,CL	;T8:T6 = C * C;
    3210:	d5 03       	fmuls	r21, r21
    3212:	40 01       	movw	r8, r0
    3214:	4c 03       	fmul	r20, r20
    3216:	30 01       	movw	r6, r0
    3218:	89 1e       	adc	r8, r25
    321a:	dc 03       	fmulsu	r21, r20
    321c:	99 0a       	sbc	r9, r25
    321e:	70 0c       	add	r7, r0
    3220:	81 1c       	adc	r8, r1
    3222:	99 1e       	adc	r9, r25
    3224:	dc 03       	fmulsu	r21, r20
    3226:	99 0a       	sbc	r9, r25
    3228:	70 0c       	add	r7, r0
    322a:	81 1c       	adc	r8, r1
    322c:	99 1e       	adc	r9, r25
	addd	T4H,T4L,T2H,T2L, T8H,T8L,T6H,T6L;T4:T2 += T8:T6;
    322e:	26 0c       	add	r2, r6
    3230:	37 1c       	adc	r3, r7
    3232:	48 1c       	adc	r4, r8
    3234:	59 1c       	adc	r5, r9
	SQRT32					;B = sqrt(T4:T2);
    3236:	66 24       	eor	r6, r6
    3238:	77 24       	eor	r7, r7
    323a:	88 24       	eor	r8, r8
    323c:	99 24       	eor	r9, r9
    323e:	21 e0       	ldi	r18, 0x01	; 1
    3240:	30 e0       	ldi	r19, 0x00	; 0
    3242:	44 27       	eor	r20, r20
    3244:	55 27       	eor	r21, r21
    3246:	70 e1       	ldi	r23, 0x10	; 16
    3248:	22 0c       	add	r2, r2
    324a:	33 1c       	adc	r3, r3
    324c:	44 1c       	adc	r4, r4
    324e:	55 1c       	adc	r5, r5
    3250:	66 1c       	adc	r6, r6
    3252:	77 1c       	adc	r7, r7
    3254:	88 1c       	adc	r8, r8
    3256:	99 1c       	adc	r9, r9
    3258:	22 0c       	add	r2, r2
    325a:	33 1c       	adc	r3, r3
    325c:	44 1c       	adc	r4, r4
    325e:	55 1c       	adc	r5, r5
    3260:	66 1c       	adc	r6, r6
    3262:	77 1c       	adc	r7, r7
    3264:	88 1c       	adc	r8, r8
    3266:	99 1c       	adc	r9, r9
    3268:	2a f4       	brpl	.+10     	; 0x3274 <fft_output_512+0xbc>
    326a:	62 0e       	add	r6, r18
    326c:	73 1e       	adc	r7, r19
    326e:	84 1e       	adc	r8, r20
    3270:	95 1e       	adc	r9, r21
    3272:	04 c0       	rjmp	.+8      	; 0x327c <fft_output_512+0xc4>
    3274:	62 1a       	sub	r6, r18
    3276:	73 0a       	sbc	r7, r19
    3278:	84 0a       	sbc	r8, r20
    327a:	95 0a       	sbc	r9, r21
    327c:	22 0f       	add	r18, r18
    327e:	33 1f       	adc	r19, r19
    3280:	44 1f       	adc	r20, r20
    3282:	28 7f       	andi	r18, 0xF8	; 248
    3284:	25 60       	ori	r18, 0x05	; 5
    3286:	97 fc       	sbrc	r9, 7
    3288:	22 50       	subi	r18, 0x02	; 2
    328a:	7a 95       	dec	r23
    328c:	e9 f6       	brne	.-70     	; 0x3248 <fft_output_512+0x90>
    328e:	46 95       	lsr	r20
    3290:	37 95       	ror	r19
    3292:	27 95       	ror	r18
    3294:	46 95       	lsr	r20
    3296:	37 95       	ror	r19
    3298:	27 95       	ror	r18
	stw	Y+, BH,BL			;*Y++ = B;
    329a:	29 93       	st	Y+, r18
    329c:	39 93       	st	Y+, r19
	subiw	AH,AL, 1			;while(--A)
    329e:	01 50       	subi	r16, 0x01	; 1
    32a0:	10 40       	sbci	r17, 0x00	; 0
	rjne	1b				;/
    32a2:	09 f0       	breq	.+2      	; 0x32a6 <fft_output_512+0xee>
    32a4:	9e cf       	rjmp	.-196    	; 0x31e2 <fft_output_512+0x2a>

	popw	YH,YL
    32a6:	cf 91       	pop	r28
    32a8:	df 91       	pop	r29
	popw	AH,AL
    32aa:	0f 91       	pop	r16
    32ac:	1f 91       	pop	r17
	popw	T10H,T10L
    32ae:	af 90       	pop	r10
    32b0:	bf 90       	pop	r11
	popw	T8H,T8L
    32b2:	8f 90       	pop	r8
    32b4:	9f 90       	pop	r9
	popw	T6H,T6L
    32b6:	6f 90       	pop	r6
    32b8:	7f 90       	pop	r7
	popw	T4H,T4L
    32ba:	4f 90       	pop	r4
    32bc:	5f 90       	pop	r5
	popw	T2H,T2L
    32be:	2f 90       	pop	r2
    32c0:	3f 90       	pop	r3
	clr	r1
    32c2:	11 24       	eor	r1, r1
	ret
    32c4:	08 95       	ret

000032c6 <fmuls_f_512>:

;----------------------------------------------------------------------------;
.global fmuls_f_512
.func fmuls_f_512
fmuls_f_512:
	movw	CL, EL				;C = E;
    32c6:	ac 01       	movw	r20, r24
	clr	EH	;Zero
    32c8:	99 27       	eor	r25, r25
	FMULS16	ZH,ZL,XH,XL, CH,CL, DH,DL	;Z:X = C * D;
    32ca:	d7 03       	fmuls	r21, r23
    32cc:	f0 01       	movw	r30, r0
    32ce:	4e 03       	fmul	r20, r22
    32d0:	d0 01       	movw	r26, r0
    32d2:	e9 1f       	adc	r30, r25
    32d4:	de 03       	fmulsu	r21, r22
    32d6:	f9 0b       	sbc	r31, r25
    32d8:	b0 0d       	add	r27, r0
    32da:	e1 1d       	adc	r30, r1
    32dc:	f9 1f       	adc	r31, r25
    32de:	fc 03       	fmulsu	r23, r20
    32e0:	f9 0b       	sbc	r31, r25
    32e2:	b0 0d       	add	r27, r0
    32e4:	e1 1d       	adc	r30, r1
    32e6:	f9 1f       	adc	r31, r25
	movw	EL, ZL
    32e8:	cf 01       	movw	r24, r30
	clr	r1
    32ea:	11 24       	eor	r1, r1
	ret
    32ec:	08 95       	ret

000032ee <tbl_window_64>:
    32ee:	3d 0a       	sbc	r3, r29
    32f0:	85 0a       	sbc	r8, r21
    32f2:	5e 0b       	sbc	r21, r30
    32f4:	c6 0c       	add	r12, r6
    32f6:	b8 0e       	add	r11, r24
    32f8:	31 11       	cpse	r19, r1
    32fa:	29 14       	cp	r2, r9
    32fc:	9a 17       	cp	r25, r26
    32fe:	7c 1b       	sub	r23, r28
    3300:	c4 1f       	adc	r28, r20
    3302:	68 24       	eor	r6, r8
    3304:	5c 29       	or	r21, r12
    3306:	96 2e       	mov	r9, r22
    3308:	06 34       	cpi	r16, 0x46	; 70
    330a:	a1 39       	cpi	r26, 0x91	; 145
    330c:	58 3f       	cpi	r21, 0xF8	; 248
    330e:	1e 45       	sbci	r17, 0x5E	; 94
    3310:	e3 4a       	sbci	r30, 0xA3	; 163
    3312:	9a 50       	subi	r25, 0x0A	; 10
    3314:	35 56       	subi	r19, 0x65	; 101
    3316:	a6 5b       	subi	r26, 0xB6	; 182
    3318:	df 60       	ori	r29, 0x0F	; 15
    331a:	d4 65       	ori	r29, 0x54	; 84
    331c:	78 6a       	ori	r23, 0xA8	; 168
    331e:	c0 6e       	ori	r28, 0xE0	; 224
    3320:	a1 72       	andi	r26, 0x21	; 33
    3322:	12 76       	andi	r17, 0x62	; 98
    3324:	0b 79       	andi	r16, 0x9B	; 155
    3326:	83 7b       	andi	r24, 0xB3	; 179
    3328:	75 7d       	andi	r23, 0xD5	; 213
    332a:	dd 7e       	andi	r29, 0xED	; 237
    332c:	b6 7f       	andi	r27, 0xF6	; 246
    332e:	fe 7f       	andi	r31, 0xFE	; 254
    3330:	b6 7f       	andi	r27, 0xF6	; 246
    3332:	dd 7e       	andi	r29, 0xED	; 237
    3334:	75 7d       	andi	r23, 0xD5	; 213
    3336:	83 7b       	andi	r24, 0xB3	; 179
    3338:	0b 79       	andi	r16, 0x9B	; 155
    333a:	12 76       	andi	r17, 0x62	; 98
    333c:	a1 72       	andi	r26, 0x21	; 33
    333e:	c0 6e       	ori	r28, 0xE0	; 224
    3340:	78 6a       	ori	r23, 0xA8	; 168
    3342:	d4 65       	ori	r29, 0x54	; 84
    3344:	df 60       	ori	r29, 0x0F	; 15
    3346:	a6 5b       	subi	r26, 0xB6	; 182
    3348:	35 56       	subi	r19, 0x65	; 101
    334a:	9a 50       	subi	r25, 0x0A	; 10
    334c:	e3 4a       	sbci	r30, 0xA3	; 163
    334e:	1e 45       	sbci	r17, 0x5E	; 94
    3350:	58 3f       	cpi	r21, 0xF8	; 248
    3352:	a1 39       	cpi	r26, 0x91	; 145
    3354:	06 34       	cpi	r16, 0x46	; 70
    3356:	96 2e       	mov	r9, r22
    3358:	5c 29       	or	r21, r12
    335a:	68 24       	eor	r6, r8
    335c:	c4 1f       	adc	r28, r20
    335e:	7c 1b       	sub	r23, r28
    3360:	9a 17       	cp	r25, r26
    3362:	29 14       	cp	r2, r9
    3364:	31 11       	cpse	r19, r1
    3366:	b8 0e       	add	r11, r24
    3368:	c6 0c       	add	r12, r6
    336a:	5e 0b       	sbc	r21, r30
    336c:	85 0a       	sbc	r8, r21

0000336e <tbl_cos_sin>:
    336e:	ff 7f       	andi	r31, 0xFF	; 255
    3370:	00 00       	nop
    3372:	61 7f       	andi	r22, 0xF1	; 241
    3374:	8b 0c       	add	r8, r11
    3376:	89 7d       	andi	r24, 0xD9	; 217
    3378:	f8 18       	sub	r15, r8
    337a:	7c 7a       	andi	r23, 0xAC	; 172
    337c:	27 25       	eor	r18, r7
    337e:	40 76       	andi	r20, 0x60	; 96
    3380:	fb 30       	cpi	r31, 0x0B	; 11
    3382:	e1 70       	andi	r30, 0x01	; 1
    3384:	56 3c       	cpi	r21, 0xC6	; 198
    3386:	6c 6a       	ori	r22, 0xAC	; 172
    3388:	1c 47       	sbci	r17, 0x7C	; 124
    338a:	f1 62       	ori	r31, 0x21	; 33
    338c:	33 51       	subi	r19, 0x13	; 19
    338e:	81 5a       	subi	r24, 0xA1	; 161
    3390:	81 5a       	subi	r24, 0xA1	; 161
    3392:	33 51       	subi	r19, 0x13	; 19
    3394:	f1 62       	ori	r31, 0x21	; 33
    3396:	1c 47       	sbci	r17, 0x7C	; 124
    3398:	6c 6a       	ori	r22, 0xAC	; 172
    339a:	56 3c       	cpi	r21, 0xC6	; 198
    339c:	e1 70       	andi	r30, 0x01	; 1
    339e:	fb 30       	cpi	r31, 0x0B	; 11
    33a0:	40 76       	andi	r20, 0x60	; 96
    33a2:	27 25       	eor	r18, r7
    33a4:	7c 7a       	andi	r23, 0xAC	; 172
    33a6:	f8 18       	sub	r15, r8
    33a8:	89 7d       	andi	r24, 0xD9	; 217
    33aa:	8b 0c       	add	r8, r11
    33ac:	61 7f       	andi	r22, 0xF1	; 241
    33ae:	00 00       	nop
    33b0:	fe 7f       	andi	r31, 0xFE	; 254
    33b2:	75 f3       	brhs	.-36     	; 0x3390 <tbl_cos_sin+0x22>
    33b4:	61 7f       	andi	r22, 0xF1	; 241
    33b6:	08 e7       	ldi	r16, 0x78	; 120
    33b8:	89 7d       	andi	r24, 0xD9	; 217
    33ba:	d9 da       	rcall	.-2638   	; 0x296e <tbl_window_512+0x3a8>
    33bc:	7c 7a       	andi	r23, 0xAC	; 172
    33be:	05 cf       	rjmp	.-502    	; 0x31ca <fft_output_512+0x12>
    33c0:	40 76       	andi	r20, 0x60	; 96
    33c2:	aa c3       	rjmp	.+1876   	; 0x3b18 <Set_Config+0x6e>
    33c4:	e1 70       	andi	r30, 0x01	; 1
    33c6:	e4 b8       	out	0x04, r14	; 4
    33c8:	6c 6a       	ori	r22, 0xAC	; 172
    33ca:	cd ae       	std	Y+61, r12	; 0x3d
    33cc:	f1 62       	ori	r31, 0x21	; 33
    33ce:	7f a5       	ldd	r23, Y+47	; 0x2f
    33d0:	81 5a       	subi	r24, 0xA1	; 161
    33d2:	0f 9d       	mul	r16, r15
    33d4:	33 51       	subi	r19, 0x13	; 19
    33d6:	94 95       	.word	0x9594	; ????
    33d8:	1c 47       	sbci	r17, 0x7C	; 124
    33da:	1f 8f       	std	Y+31, r17	; 0x1f
    33dc:	56 3c       	cpi	r21, 0xC6	; 198
    33de:	c0 89       	ldd	r28, Z+16	; 0x10
    33e0:	fb 30       	cpi	r31, 0x0B	; 11
    33e2:	84 85       	ldd	r24, Z+12	; 0x0c
    33e4:	27 25       	eor	r18, r7
    33e6:	77 82       	std	Z+7, r7	; 0x07
    33e8:	f8 18       	sub	r15, r8
    33ea:	9f 80       	ldd	r9, Y+7	; 0x07
    33ec:	8b 0c       	add	r8, r11

000033ee <tbl_bitrev>:
    33ee:	00 00       	nop
    33f0:	80 00       	.word	0x0080	; ????
    33f2:	40 00       	.word	0x0040	; ????
    33f4:	c0 00       	.word	0x00c0	; ????
    33f6:	20 00       	.word	0x0020	; ????
    33f8:	a0 00       	.word	0x00a0	; ????
    33fa:	60 00       	.word	0x0060	; ????
    33fc:	e0 00       	.word	0x00e0	; ????
    33fe:	10 00       	.word	0x0010	; ????
    3400:	90 00       	.word	0x0090	; ????
    3402:	50 00       	.word	0x0050	; ????
    3404:	d0 00       	.word	0x00d0	; ????
    3406:	30 00       	.word	0x0030	; ????
    3408:	b0 00       	.word	0x00b0	; ????
    340a:	70 00       	.word	0x0070	; ????
    340c:	f0 00       	.word	0x00f0	; ????
    340e:	08 00       	.word	0x0008	; ????
    3410:	88 00       	.word	0x0088	; ????
    3412:	48 00       	.word	0x0048	; ????
    3414:	c8 00       	.word	0x00c8	; ????
    3416:	28 00       	.word	0x0028	; ????
    3418:	a8 00       	.word	0x00a8	; ????
    341a:	68 00       	.word	0x0068	; ????
    341c:	e8 00       	.word	0x00e8	; ????
    341e:	18 00       	.word	0x0018	; ????
    3420:	98 00       	.word	0x0098	; ????
    3422:	58 00       	.word	0x0058	; ????
    3424:	d8 00       	.word	0x00d8	; ????
    3426:	38 00       	.word	0x0038	; ????
    3428:	b8 00       	.word	0x00b8	; ????
    342a:	78 00       	.word	0x0078	; ????
    342c:	f8 00       	.word	0x00f8	; ????

0000342e <fft_input_64>:
;----------------------------------------------------------------------------;
#ifndef INPUT_NOISE
.global fft_input_64
.func fft_input_64
fft_input_64:
	pushw	T2H,T2L
    342e:	3f 92       	push	r3
    3430:	2f 92       	push	r2
	pushw	AH,AL
    3432:	1f 93       	push	r17
    3434:	0f 93       	push	r16
	pushw	YH,YL
    3436:	df 93       	push	r29
    3438:	cf 93       	push	r28

	movw	XL, EL				;X = array_src;
    343a:	dc 01       	movw	r26, r24
	movw	YL, DL				;Y = array_bfly;
    343c:	eb 01       	movw	r28, r22
	clr	EH				;Zero
    343e:	99 27       	eor	r25, r25
	ldiw	ZH,ZL, tbl_window_64		;Z = &tbl_window[0];
    3440:	ee ee       	ldi	r30, 0xEE	; 238
    3442:	f2 e3       	ldi	r31, 0x32	; 50
	ldiw	AH,AL, FFT_N_64			;A = FFT_N;
    3444:	00 e4       	ldi	r16, 0x40	; 64
    3446:	10 e0       	ldi	r17, 0x00	; 0
1:	lpmw	BH,BL, Z+			;B = *Z++; (window)
    3448:	25 91       	lpm	r18, Z+
    344a:	35 91       	lpm	r19, Z+
	ldw	CH,CL, X+			;C = *X++; (I-axis)
    344c:	4d 91       	ld	r20, X+
    344e:	5d 91       	ld	r21, X+
	FMULS16	DH,DL,T2H,T2L, BH,BL, CH,CL	;D = B * C;
    3450:	b5 03       	fmuls	r19, r21
    3452:	b0 01       	movw	r22, r0
    3454:	2c 03       	fmul	r18, r20
    3456:	10 01       	movw	r2, r0
    3458:	69 1f       	adc	r22, r25
    345a:	bc 03       	fmulsu	r19, r20
    345c:	79 0b       	sbc	r23, r25
    345e:	30 0c       	add	r3, r0
    3460:	61 1d       	adc	r22, r1
    3462:	79 1f       	adc	r23, r25
    3464:	da 03       	fmulsu	r21, r18
    3466:	79 0b       	sbc	r23, r25
    3468:	30 0c       	add	r3, r0
    346a:	61 1d       	adc	r22, r1
    346c:	79 1f       	adc	r23, r25
	stw	Y+, DH,DL			;*Y++ = D;
    346e:	69 93       	st	Y+, r22
    3470:	79 93       	st	Y+, r23
#ifdef INPUT_IQ
	ldw	CH,CL, X+			;C = *X++; (Q-axis)
	FMULS16	DH,DL,T2H,T2L, BH,BL, CH,CL	;D = B * C;
#endif
	stw	Y+, DH,DL			;*Y++ = D;
    3472:	69 93       	st	Y+, r22
    3474:	79 93       	st	Y+, r23
	subiw	AH,AL, 1			;while(--A)
    3476:	01 50       	subi	r16, 0x01	; 1
    3478:	10 40       	sbci	r17, 0x00	; 0
	brne	1b				;/
    347a:	31 f7       	brne	.-52     	; 0x3448 <fft_input_64+0x1a>

	popw	YH,YL
    347c:	cf 91       	pop	r28
    347e:	df 91       	pop	r29
	popw	AH,AL
    3480:	0f 91       	pop	r16
    3482:	1f 91       	pop	r17
	popw	T2H,T2L
    3484:	2f 90       	pop	r2
    3486:	3f 90       	pop	r3
	clr	r1
    3488:	11 24       	eor	r1, r1
	ret
    348a:	08 95       	ret

0000348c <fft_execute_64>:

;----------------------------------------------------------------------------;
.global fft_execute_64
.func fft_execute_64
fft_execute_64:
	pushw	T2H,T2L
    348c:	3f 92       	push	r3
    348e:	2f 92       	push	r2
	pushw	T4H,T4L
    3490:	5f 92       	push	r5
    3492:	4f 92       	push	r4
	pushw	T6H,T6L
    3494:	7f 92       	push	r7
    3496:	6f 92       	push	r6
	pushw	T8H,T8L
    3498:	9f 92       	push	r9
    349a:	8f 92       	push	r8
	pushw	T10H,T10L
    349c:	bf 92       	push	r11
    349e:	af 92       	push	r10
	pushw	T12H,T12L
    34a0:	df 92       	push	r13
    34a2:	cf 92       	push	r12
	pushw	T14H,T14L
    34a4:	ff 92       	push	r15
    34a6:	ef 92       	push	r14
	pushw	AH,AL
    34a8:	1f 93       	push	r17
    34aa:	0f 93       	push	r16
	pushw	YH,YL
    34ac:	df 93       	push	r29
    34ae:	cf 93       	push	r28

	movw	ZL, EL				;Z = array_bfly;
    34b0:	fc 01       	movw	r30, r24
	ldiw	EH,EL, 1			;E = 1;
    34b2:	81 e0       	ldi	r24, 0x01	; 1
    34b4:	90 e0       	ldi	r25, 0x00	; 0
	ldiw	XH,XL, FFT_N_64/2			;X = FFT_N/2;
    34b6:	a0 e2       	ldi	r26, 0x20	; 32
    34b8:	b0 e0       	ldi	r27, 0x00	; 0
1:	ldi	AL, 4				;T12 = E; (angular speed)
    34ba:	04 e0       	ldi	r16, 0x04	; 4
	mul	EL, AL				;
    34bc:	80 9f       	mul	r24, r16
	movw	T12L, T0L			;
    34be:	60 01       	movw	r12, r0
	mul	EH, AL				;
    34c0:	90 9f       	mul	r25, r16
	add	T12H, T0L			;/
    34c2:	d0 0c       	add	r13, r0
	movw	T14L, EL			;T14 = E;
    34c4:	7c 01       	movw	r14, r24
	pushw	EH,EL
    34c6:	9f 93       	push	r25
    34c8:	8f 93       	push	r24
	movw	YL, ZL				;Z = &array_bfly[0];
    34ca:	ef 01       	movw	r28, r30
	mul	XL, AL				;Y = &array_bfly[X];
    34cc:	a0 9f       	mul	r26, r16
	addw	YH,YL, T0H,T0L			;
    34ce:	c0 0d       	add	r28, r0
    34d0:	d1 1d       	adc	r29, r1
	mul	XH, AL				;
    34d2:	b0 9f       	mul	r27, r16
	add	YH, T0L				;/
    34d4:	d0 0d       	add	r29, r0
	pushw	ZH,ZL
    34d6:	ff 93       	push	r31
    34d8:	ef 93       	push	r30
2:	clrw	T10H,T10L			;T10 = 0 (angle)
    34da:	bb 24       	eor	r11, r11
    34dc:	aa 24       	eor	r10, r10
	clr	EH				;Zero reg.
    34de:	99 27       	eor	r25, r25
3:	lddw	AH,AL, Z+0			;A = *Z - *Y; *Z++ += *Y;
    34e0:	00 81       	ld	r16, Z
    34e2:	11 81       	ldd	r17, Z+1	; 0x01
	asrw	AH,AL				;
    34e4:	15 95       	asr	r17
    34e6:	07 95       	ror	r16
	lddw	DH,DL, Y+0			;
    34e8:	68 81       	ld	r22, Y
    34ea:	79 81       	ldd	r23, Y+1	; 0x01
	asrw	DH,DL				;
    34ec:	75 95       	asr	r23
    34ee:	67 95       	ror	r22
	movw	CL, AL				;
    34f0:	a8 01       	movw	r20, r16
	subw	AH,AL, DH,DL			;
    34f2:	06 1b       	sub	r16, r22
    34f4:	17 0b       	sbc	r17, r23
	addw	CH,CL, DH,DL			;
    34f6:	46 0f       	add	r20, r22
    34f8:	57 1f       	adc	r21, r23
	stw	Z+, CH,CL			;/
    34fa:	41 93       	st	Z+, r20
    34fc:	51 93       	st	Z+, r21
	lddw	BH,BL, Z+0			;B = *Z - *Y; *Z++ += *Y;
    34fe:	20 81       	ld	r18, Z
    3500:	31 81       	ldd	r19, Z+1	; 0x01
	asrw	BH,BL				;
    3502:	35 95       	asr	r19
    3504:	27 95       	ror	r18
	lddw	DH,DL, Y+2			;
    3506:	6a 81       	ldd	r22, Y+2	; 0x02
    3508:	7b 81       	ldd	r23, Y+3	; 0x03
	asrw	DH,DL				;
    350a:	75 95       	asr	r23
    350c:	67 95       	ror	r22
	movw	CL, BL				;
    350e:	a9 01       	movw	r20, r18
	subw	BH,BL, DH,DL			;
    3510:	26 1b       	sub	r18, r22
    3512:	37 0b       	sbc	r19, r23
	addw	CH,CL, DH,DL			;
    3514:	46 0f       	add	r20, r22
    3516:	57 1f       	adc	r21, r23
	stw	Z+, CH,CL			;/
    3518:	41 93       	st	Z+, r20
    351a:	51 93       	st	Z+, r21
	movw	T0L, ZL
    351c:	0f 01       	movw	r0, r30
	ldiw	ZH,ZL, tbl_cos_sin		;C = cos(T10); D = sin(T10);
    351e:	ee e6       	ldi	r30, 0x6E	; 110
    3520:	f3 e3       	ldi	r31, 0x33	; 51
	addw	ZH,ZL, T10H,T10L		;
    3522:	ea 0d       	add	r30, r10
    3524:	fb 1d       	adc	r31, r11
	lpmw	CH,CL, Z+			;
    3526:	45 91       	lpm	r20, Z+
    3528:	55 91       	lpm	r21, Z+
	lpmw	DH,DL, Z+			;/
    352a:	65 91       	lpm	r22, Z+
    352c:	75 91       	lpm	r23, Z+
	movw	ZL, T0L
    352e:	f0 01       	movw	r30, r0
	FMULS16	T4H,T4L,T2H,T2L, AH,AL, CH,CL	;*Y++ = A * C + B * D;
    3530:	95 03       	fmuls	r17, r21
    3532:	20 01       	movw	r4, r0
    3534:	0c 03       	fmul	r16, r20
    3536:	10 01       	movw	r2, r0
    3538:	49 1e       	adc	r4, r25
    353a:	9c 03       	fmulsu	r17, r20
    353c:	59 0a       	sbc	r5, r25
    353e:	30 0c       	add	r3, r0
    3540:	41 1c       	adc	r4, r1
    3542:	59 1e       	adc	r5, r25
    3544:	d8 03       	fmulsu	r21, r16
    3546:	59 0a       	sbc	r5, r25
    3548:	30 0c       	add	r3, r0
    354a:	41 1c       	adc	r4, r1
    354c:	59 1e       	adc	r5, r25
	FMULS16	T8H,T8L,T6H,T6L, BH,BL, DH,DL	;
    354e:	b7 03       	fmuls	r19, r23
    3550:	40 01       	movw	r8, r0
    3552:	2e 03       	fmul	r18, r22
    3554:	30 01       	movw	r6, r0
    3556:	89 1e       	adc	r8, r25
    3558:	be 03       	fmulsu	r19, r22
    355a:	99 0a       	sbc	r9, r25
    355c:	70 0c       	add	r7, r0
    355e:	81 1c       	adc	r8, r1
    3560:	99 1e       	adc	r9, r25
    3562:	fa 03       	fmulsu	r23, r18
    3564:	99 0a       	sbc	r9, r25
    3566:	70 0c       	add	r7, r0
    3568:	81 1c       	adc	r8, r1
    356a:	99 1e       	adc	r9, r25
	addd	T4H,T4L,T2H,T2L, T8H,T8L,T6H,T6L;
    356c:	26 0c       	add	r2, r6
    356e:	37 1c       	adc	r3, r7
    3570:	48 1c       	adc	r4, r8
    3572:	59 1c       	adc	r5, r9
	stw	Y+, T4H,T4L			;/
    3574:	49 92       	st	Y+, r4
    3576:	59 92       	st	Y+, r5
	FMULS16	T4H,T4L,T2H,T2L, BH,BL, CH,CL 	;*Y++ = B * C - A * D;
    3578:	b5 03       	fmuls	r19, r21
    357a:	20 01       	movw	r4, r0
    357c:	2c 03       	fmul	r18, r20
    357e:	10 01       	movw	r2, r0
    3580:	49 1e       	adc	r4, r25
    3582:	bc 03       	fmulsu	r19, r20
    3584:	59 0a       	sbc	r5, r25
    3586:	30 0c       	add	r3, r0
    3588:	41 1c       	adc	r4, r1
    358a:	59 1e       	adc	r5, r25
    358c:	da 03       	fmulsu	r21, r18
    358e:	59 0a       	sbc	r5, r25
    3590:	30 0c       	add	r3, r0
    3592:	41 1c       	adc	r4, r1
    3594:	59 1e       	adc	r5, r25
	FMULS16	T8H,T8L,T6H,T6L, AH,AL, DH,DL 	;
    3596:	97 03       	fmuls	r17, r23
    3598:	40 01       	movw	r8, r0
    359a:	0e 03       	fmul	r16, r22
    359c:	30 01       	movw	r6, r0
    359e:	89 1e       	adc	r8, r25
    35a0:	9e 03       	fmulsu	r17, r22
    35a2:	99 0a       	sbc	r9, r25
    35a4:	70 0c       	add	r7, r0
    35a6:	81 1c       	adc	r8, r1
    35a8:	99 1e       	adc	r9, r25
    35aa:	f8 03       	fmulsu	r23, r16
    35ac:	99 0a       	sbc	r9, r25
    35ae:	70 0c       	add	r7, r0
    35b0:	81 1c       	adc	r8, r1
    35b2:	99 1e       	adc	r9, r25
	subd	T4H,T4L,T2H,T2L, T8H,T8L,T6H,T6L;
    35b4:	26 18       	sub	r2, r6
    35b6:	37 08       	sbc	r3, r7
    35b8:	48 08       	sbc	r4, r8
    35ba:	59 08       	sbc	r5, r9
	stw	Y+, T4H,T4L			;/
    35bc:	49 92       	st	Y+, r4
    35be:	59 92       	st	Y+, r5
	addw	T10H,T10L, T12H,T12L		;T10 += T12; (next angle)
    35c0:	ac 0c       	add	r10, r12
    35c2:	bd 1c       	adc	r11, r13
#if FFT_N_64 >= 128
	sbrs	T10H, FFT_B_64 - 7			;while(T10 < pi)
#else
	sbrs	T10L, FFT_B_64 + 1
    35c4:	a7 fe       	sbrs	r10, 7
#endif
	rjmp	3b				;/
    35c6:	8c cf       	rjmp	.-232    	; 0x34e0 <fft_execute_64+0x54>
	ldi	AL, 4				;Y += X; Z += X; (skip split segment)
    35c8:	04 e0       	ldi	r16, 0x04	; 4
	mul	XL, AL
    35ca:	a0 9f       	mul	r26, r16
	addw	YH,YL, T0H,T0L			;
    35cc:	c0 0d       	add	r28, r0
    35ce:	d1 1d       	adc	r29, r1
	addw	ZH,ZL, T0H,T0L			;
    35d0:	e0 0d       	add	r30, r0
    35d2:	f1 1d       	adc	r31, r1
	mul	XH, AL				;
    35d4:	b0 9f       	mul	r27, r16
	add	YH, T0L				;
    35d6:	d0 0d       	add	r29, r0
	add	ZH, T0L				;/
    35d8:	f0 0d       	add	r31, r0
	ldi	EL, 1				;while(--T14)
    35da:	81 e0       	ldi	r24, 0x01	; 1
	subw	T14H,T14L, EH,EL		;
    35dc:	e8 1a       	sub	r14, r24
    35de:	f9 0a       	sbc	r15, r25
	rjne	2b				;/
    35e0:	09 f0       	breq	.+2      	; 0x35e4 <fft_execute_64+0x158>
    35e2:	7b cf       	rjmp	.-266    	; 0x34da <fft_execute_64+0x4e>
	popw	ZH,ZL
    35e4:	ef 91       	pop	r30
    35e6:	ff 91       	pop	r31
	popw	EH,EL
    35e8:	8f 91       	pop	r24
    35ea:	9f 91       	pop	r25
	lslw	EH,EL				;E *= 2;
    35ec:	88 0f       	add	r24, r24
    35ee:	99 1f       	adc	r25, r25
	lsrw	XH,XL				;while(X /= 2)
    35f0:	b6 95       	lsr	r27
    35f2:	a7 95       	ror	r26
	adiw	XL, 0				;
    35f4:	10 96       	adiw	r26, 0x00	; 0
	rjne	1b				;/
    35f6:	09 f0       	breq	.+2      	; 0x35fa <fft_execute_64+0x16e>
    35f8:	60 cf       	rjmp	.-320    	; 0x34ba <fft_execute_64+0x2e>

	popw	YH,YL
    35fa:	cf 91       	pop	r28
    35fc:	df 91       	pop	r29
	popw	AH,AL
    35fe:	0f 91       	pop	r16
    3600:	1f 91       	pop	r17
	popw	T14H,T14L
    3602:	ef 90       	pop	r14
    3604:	ff 90       	pop	r15
	popw	T12H,T12L
    3606:	cf 90       	pop	r12
    3608:	df 90       	pop	r13
	popw	T10H,T10L
    360a:	af 90       	pop	r10
    360c:	bf 90       	pop	r11
	popw	T8H,T8L
    360e:	8f 90       	pop	r8
    3610:	9f 90       	pop	r9
	popw	T6H,T6L
    3612:	6f 90       	pop	r6
    3614:	7f 90       	pop	r7
	popw	T4H,T4L
    3616:	4f 90       	pop	r4
    3618:	5f 90       	pop	r5
	popw	T2H,T2L
    361a:	2f 90       	pop	r2
    361c:	3f 90       	pop	r3
;	clr	r1
	ret
    361e:	08 95       	ret

00003620 <fft_output_64>:

;----------------------------------------------------------------------------;
.global fft_output_64
.func fft_output_64
fft_output_64:
	pushw	T2H,T2L
    3620:	3f 92       	push	r3
    3622:	2f 92       	push	r2
	pushw	T4H,T4L
    3624:	5f 92       	push	r5
    3626:	4f 92       	push	r4
	pushw	T6H,T6L
    3628:	7f 92       	push	r7
    362a:	6f 92       	push	r6
	pushw	T8H,T8L
    362c:	9f 92       	push	r9
    362e:	8f 92       	push	r8
	pushw	T10H,T10L
    3630:	bf 92       	push	r11
    3632:	af 92       	push	r10
	pushw	AH,AL
    3634:	1f 93       	push	r17
    3636:	0f 93       	push	r16
	pushw	YH,YL
    3638:	df 93       	push	r29
    363a:	cf 93       	push	r28

	movw	T10L, EL			;T10 = array_bfly;
    363c:	5c 01       	movw	r10, r24
	movw	YL, DL				;Y = array_output;
    363e:	eb 01       	movw	r28, r22
	ldiw	ZH,ZL, tbl_bitrev		;Z = tbl_bitrev;
    3640:	ee ee       	ldi	r30, 0xEE	; 238
    3642:	f3 e3       	ldi	r31, 0x33	; 51
	clr	EH				;Zero
    3644:	99 27       	eor	r25, r25
#ifdef INPUT_IQ
	ldiw	AH,AL, FFT_N_64			;A = FFT_N; (plus/minus)
#else
	ldiw	AH,AL, FFT_N_64 / 2		;A = FFT_N / 2; (plus only)
    3646:	00 e2       	ldi	r16, 0x20	; 32
    3648:	10 e0       	ldi	r17, 0x00	; 0
#endif
1:	lpmw	XH,XL, Z+			;X = *Z++;
    364a:	a5 91       	lpm	r26, Z+
    364c:	b5 91       	lpm	r27, Z+
	addw	XH,XL, T10H,T10L		;X += array_bfly;
    364e:	aa 0d       	add	r26, r10
    3650:	bb 1d       	adc	r27, r11
	ldw	BH,BL, X+			;B = *X++;
    3652:	2d 91       	ld	r18, X+
    3654:	3d 91       	ld	r19, X+
	ldw	CH,CL, X+			;C = *X++;
    3656:	4d 91       	ld	r20, X+
    3658:	5d 91       	ld	r21, X+
	FMULS16	T4H,T4L,T2H,T2L, BH,BL, BH,BL	;T4:T2 = B * B;
    365a:	b3 03       	fmuls	r19, r19
    365c:	20 01       	movw	r4, r0
    365e:	2a 03       	fmul	r18, r18
    3660:	10 01       	movw	r2, r0
    3662:	49 1e       	adc	r4, r25
    3664:	ba 03       	fmulsu	r19, r18
    3666:	59 0a       	sbc	r5, r25
    3668:	30 0c       	add	r3, r0
    366a:	41 1c       	adc	r4, r1
    366c:	59 1e       	adc	r5, r25
    366e:	ba 03       	fmulsu	r19, r18
    3670:	59 0a       	sbc	r5, r25
    3672:	30 0c       	add	r3, r0
    3674:	41 1c       	adc	r4, r1
    3676:	59 1e       	adc	r5, r25
	FMULS16	T8H,T8L,T6H,T6L, CH,CL, CH,CL	;T8:T6 = C * C;
    3678:	d5 03       	fmuls	r21, r21
    367a:	40 01       	movw	r8, r0
    367c:	4c 03       	fmul	r20, r20
    367e:	30 01       	movw	r6, r0
    3680:	89 1e       	adc	r8, r25
    3682:	dc 03       	fmulsu	r21, r20
    3684:	99 0a       	sbc	r9, r25
    3686:	70 0c       	add	r7, r0
    3688:	81 1c       	adc	r8, r1
    368a:	99 1e       	adc	r9, r25
    368c:	dc 03       	fmulsu	r21, r20
    368e:	99 0a       	sbc	r9, r25
    3690:	70 0c       	add	r7, r0
    3692:	81 1c       	adc	r8, r1
    3694:	99 1e       	adc	r9, r25
	addd	T4H,T4L,T2H,T2L, T8H,T8L,T6H,T6L;T4:T2 += T8:T6;
    3696:	26 0c       	add	r2, r6
    3698:	37 1c       	adc	r3, r7
    369a:	48 1c       	adc	r4, r8
    369c:	59 1c       	adc	r5, r9
	SQRT32					;B = sqrt(T4:T2);
    369e:	66 24       	eor	r6, r6
    36a0:	77 24       	eor	r7, r7
    36a2:	88 24       	eor	r8, r8
    36a4:	99 24       	eor	r9, r9
    36a6:	21 e0       	ldi	r18, 0x01	; 1
    36a8:	30 e0       	ldi	r19, 0x00	; 0
    36aa:	44 27       	eor	r20, r20
    36ac:	55 27       	eor	r21, r21
    36ae:	70 e1       	ldi	r23, 0x10	; 16
    36b0:	22 0c       	add	r2, r2
    36b2:	33 1c       	adc	r3, r3
    36b4:	44 1c       	adc	r4, r4
    36b6:	55 1c       	adc	r5, r5
    36b8:	66 1c       	adc	r6, r6
    36ba:	77 1c       	adc	r7, r7
    36bc:	88 1c       	adc	r8, r8
    36be:	99 1c       	adc	r9, r9
    36c0:	22 0c       	add	r2, r2
    36c2:	33 1c       	adc	r3, r3
    36c4:	44 1c       	adc	r4, r4
    36c6:	55 1c       	adc	r5, r5
    36c8:	66 1c       	adc	r6, r6
    36ca:	77 1c       	adc	r7, r7
    36cc:	88 1c       	adc	r8, r8
    36ce:	99 1c       	adc	r9, r9
    36d0:	2a f4       	brpl	.+10     	; 0x36dc <fft_output_64+0xbc>
    36d2:	62 0e       	add	r6, r18
    36d4:	73 1e       	adc	r7, r19
    36d6:	84 1e       	adc	r8, r20
    36d8:	95 1e       	adc	r9, r21
    36da:	04 c0       	rjmp	.+8      	; 0x36e4 <fft_output_64+0xc4>
    36dc:	62 1a       	sub	r6, r18
    36de:	73 0a       	sbc	r7, r19
    36e0:	84 0a       	sbc	r8, r20
    36e2:	95 0a       	sbc	r9, r21
    36e4:	22 0f       	add	r18, r18
    36e6:	33 1f       	adc	r19, r19
    36e8:	44 1f       	adc	r20, r20
    36ea:	28 7f       	andi	r18, 0xF8	; 248
    36ec:	25 60       	ori	r18, 0x05	; 5
    36ee:	97 fc       	sbrc	r9, 7
    36f0:	22 50       	subi	r18, 0x02	; 2
    36f2:	7a 95       	dec	r23
    36f4:	e9 f6       	brne	.-70     	; 0x36b0 <fft_output_64+0x90>
    36f6:	46 95       	lsr	r20
    36f8:	37 95       	ror	r19
    36fa:	27 95       	ror	r18
    36fc:	46 95       	lsr	r20
    36fe:	37 95       	ror	r19
    3700:	27 95       	ror	r18
	stw	Y+, BH,BL			;*Y++ = B;
    3702:	29 93       	st	Y+, r18
    3704:	39 93       	st	Y+, r19
	subiw	AH,AL, 1			;while(--A)
    3706:	01 50       	subi	r16, 0x01	; 1
    3708:	10 40       	sbci	r17, 0x00	; 0
	rjne	1b				;/
    370a:	09 f0       	breq	.+2      	; 0x370e <fft_output_64+0xee>
    370c:	9e cf       	rjmp	.-196    	; 0x364a <fft_output_64+0x2a>

	popw	YH,YL
    370e:	cf 91       	pop	r28
    3710:	df 91       	pop	r29
	popw	AH,AL
    3712:	0f 91       	pop	r16
    3714:	1f 91       	pop	r17
	popw	T10H,T10L
    3716:	af 90       	pop	r10
    3718:	bf 90       	pop	r11
	popw	T8H,T8L
    371a:	8f 90       	pop	r8
    371c:	9f 90       	pop	r9
	popw	T6H,T6L
    371e:	6f 90       	pop	r6
    3720:	7f 90       	pop	r7
	popw	T4H,T4L
    3722:	4f 90       	pop	r4
    3724:	5f 90       	pop	r5
	popw	T2H,T2L
    3726:	2f 90       	pop	r2
    3728:	3f 90       	pop	r3
	clr	r1
    372a:	11 24       	eor	r1, r1
	ret
    372c:	08 95       	ret

0000372e <fmuls_f_64>:

;----------------------------------------------------------------------------;
.global fmuls_f_64
.func fmuls_f_64
fmuls_f_64:
	movw	CL, EL				;C = E;
    372e:	ac 01       	movw	r20, r24
	clr	EH	;Zero
    3730:	99 27       	eor	r25, r25
	FMULS16	ZH,ZL,XH,XL, CH,CL, DH,DL	;Z:X = C * D;
    3732:	d7 03       	fmuls	r21, r23
    3734:	f0 01       	movw	r30, r0
    3736:	4e 03       	fmul	r20, r22
    3738:	d0 01       	movw	r26, r0
    373a:	e9 1f       	adc	r30, r25
    373c:	de 03       	fmulsu	r21, r22
    373e:	f9 0b       	sbc	r31, r25
    3740:	b0 0d       	add	r27, r0
    3742:	e1 1d       	adc	r30, r1
    3744:	f9 1f       	adc	r31, r25
    3746:	fc 03       	fmulsu	r23, r20
    3748:	f9 0b       	sbc	r31, r25
    374a:	b0 0d       	add	r27, r0
    374c:	e1 1d       	adc	r30, r1
    374e:	f9 1f       	adc	r31, r25
	movw	EL, ZL
    3750:	cf 01       	movw	r24, r30
	clr	r1
    3752:	11 24       	eor	r1, r1
	ret
    3754:	08 95       	ret

00003756 <ADC_Init>:
    3756:	90 e4       	ldi	r25, 0x40	; 64
    3758:	90 93 7c 00 	sts	0x007C, r25	; 0x80007c <__TEXT_REGION_LENGTH__+0x7e007c>
    375c:	82 30       	cpi	r24, 0x02	; 2
    375e:	11 f4       	brne	.+4      	; 0x3764 <ADC_Init+0xe>
    3760:	81 e0       	ldi	r24, 0x01	; 1
    3762:	17 c0       	rjmp	.+46     	; 0x3792 <ADC_Init+0x3c>
    3764:	84 30       	cpi	r24, 0x04	; 4
    3766:	11 f4       	brne	.+4      	; 0x376c <ADC_Init+0x16>
    3768:	82 e0       	ldi	r24, 0x02	; 2
    376a:	13 c0       	rjmp	.+38     	; 0x3792 <ADC_Init+0x3c>
    376c:	88 30       	cpi	r24, 0x08	; 8
    376e:	11 f4       	brne	.+4      	; 0x3774 <ADC_Init+0x1e>
    3770:	83 e0       	ldi	r24, 0x03	; 3
    3772:	0f c0       	rjmp	.+30     	; 0x3792 <ADC_Init+0x3c>
    3774:	80 31       	cpi	r24, 0x10	; 16
    3776:	11 f4       	brne	.+4      	; 0x377c <ADC_Init+0x26>
    3778:	84 e0       	ldi	r24, 0x04	; 4
    377a:	0b c0       	rjmp	.+22     	; 0x3792 <ADC_Init+0x3c>
    377c:	80 32       	cpi	r24, 0x20	; 32
    377e:	11 f4       	brne	.+4      	; 0x3784 <ADC_Init+0x2e>
    3780:	85 e0       	ldi	r24, 0x05	; 5
    3782:	07 c0       	rjmp	.+14     	; 0x3792 <ADC_Init+0x3c>
    3784:	80 34       	cpi	r24, 0x40	; 64
    3786:	11 f4       	brne	.+4      	; 0x378c <ADC_Init+0x36>
    3788:	86 e0       	ldi	r24, 0x06	; 6
    378a:	03 c0       	rjmp	.+6      	; 0x3792 <ADC_Init+0x3c>
    378c:	80 38       	cpi	r24, 0x80	; 128
    378e:	19 f4       	brne	.+6      	; 0x3796 <ADC_Init+0x40>
    3790:	87 e0       	ldi	r24, 0x07	; 7
    3792:	80 93 7a 00 	sts	0x007A, r24	; 0x80007a <__TEXT_REGION_LENGTH__+0x7e007a>
    3796:	80 91 7a 00 	lds	r24, 0x007A	; 0x80007a <__TEXT_REGION_LENGTH__+0x7e007a>
    379a:	80 68       	ori	r24, 0x80	; 128
    379c:	80 93 7a 00 	sts	0x007A, r24	; 0x80007a <__TEXT_REGION_LENGTH__+0x7e007a>
    37a0:	80 91 7a 00 	lds	r24, 0x007A	; 0x80007a <__TEXT_REGION_LENGTH__+0x7e007a>
    37a4:	80 64       	ori	r24, 0x40	; 64
    37a6:	80 93 7a 00 	sts	0x007A, r24	; 0x80007a <__TEXT_REGION_LENGTH__+0x7e007a>
    37aa:	80 91 7a 00 	lds	r24, 0x007A	; 0x80007a <__TEXT_REGION_LENGTH__+0x7e007a>
    37ae:	86 fd       	sbrc	r24, 6
    37b0:	fc cf       	rjmp	.-8      	; 0x37aa <ADC_Init+0x54>
    37b2:	08 95       	ret

000037b4 <ADC_Read>:
    37b4:	90 91 7c 00 	lds	r25, 0x007C	; 0x80007c <__TEXT_REGION_LENGTH__+0x7e007c>
    37b8:	8f 71       	andi	r24, 0x1F	; 31
    37ba:	90 7e       	andi	r25, 0xE0	; 224
    37bc:	89 2b       	or	r24, r25
    37be:	80 93 7c 00 	sts	0x007C, r24	; 0x80007c <__TEXT_REGION_LENGTH__+0x7e007c>
    37c2:	80 91 7a 00 	lds	r24, 0x007A	; 0x80007a <__TEXT_REGION_LENGTH__+0x7e007a>
    37c6:	80 64       	ori	r24, 0x40	; 64
    37c8:	80 93 7a 00 	sts	0x007A, r24	; 0x80007a <__TEXT_REGION_LENGTH__+0x7e007a>
    37cc:	80 91 7a 00 	lds	r24, 0x007A	; 0x80007a <__TEXT_REGION_LENGTH__+0x7e007a>
    37d0:	86 fd       	sbrc	r24, 6
    37d2:	fc cf       	rjmp	.-8      	; 0x37cc <ADC_Read+0x18>
    37d4:	80 91 78 00 	lds	r24, 0x0078	; 0x800078 <__TEXT_REGION_LENGTH__+0x7e0078>
    37d8:	90 91 79 00 	lds	r25, 0x0079	; 0x800079 <__TEXT_REGION_LENGTH__+0x7e0079>
    37dc:	08 95       	ret

000037de <Read_Config>:
    37de:	2f 92       	push	r2
    37e0:	3f 92       	push	r3
    37e2:	4f 92       	push	r4
    37e4:	5f 92       	push	r5
    37e6:	6f 92       	push	r6
    37e8:	7f 92       	push	r7
    37ea:	8f 92       	push	r8
    37ec:	9f 92       	push	r9
    37ee:	af 92       	push	r10
    37f0:	bf 92       	push	r11
    37f2:	cf 92       	push	r12
    37f4:	df 92       	push	r13
    37f6:	ef 92       	push	r14
    37f8:	ff 92       	push	r15
    37fa:	0f 93       	push	r16
    37fc:	1f 93       	push	r17
    37fe:	cf 93       	push	r28
    3800:	df 93       	push	r29
    3802:	81 e0       	ldi	r24, 0x01	; 1
    3804:	90 e0       	ldi	r25, 0x00	; 0
    3806:	0e 94 36 26 	call	0x4c6c	; 0x4c6c <eeprom_read_byte>
    380a:	28 2e       	mov	r2, r24
    380c:	80 93 21 01 	sts	0x0121, r24	; 0x800121 <Threshold>
    3810:	82 e0       	ldi	r24, 0x02	; 2
    3812:	90 e0       	ldi	r25, 0x00	; 0
    3814:	0e 94 36 26 	call	0x4c6c	; 0x4c6c <eeprom_read_byte>
    3818:	08 2f       	mov	r16, r24
    381a:	80 93 13 01 	sts	0x0113, r24	; 0x800113 <Samples>
    381e:	83 e0       	ldi	r24, 0x03	; 3
    3820:	90 e0       	ldi	r25, 0x00	; 0
    3822:	0e 94 36 26 	call	0x4c6c	; 0x4c6c <eeprom_read_byte>
    3826:	d8 2f       	mov	r29, r24
    3828:	80 93 22 01 	sts	0x0122, r24	; 0x800122 <Mode>
    382c:	84 e0       	ldi	r24, 0x04	; 4
    382e:	90 e0       	ldi	r25, 0x00	; 0
    3830:	0e 94 36 26 	call	0x4c6c	; 0x4c6c <eeprom_read_byte>
    3834:	c8 2f       	mov	r28, r24
    3836:	80 93 15 01 	sts	0x0115, r24	; 0x800115 <ADC_Prescaler>
    383a:	85 e0       	ldi	r24, 0x05	; 5
    383c:	90 e0       	ldi	r25, 0x00	; 0
    383e:	0e 94 36 26 	call	0x4c6c	; 0x4c6c <eeprom_read_byte>
    3842:	98 2e       	mov	r9, r24
    3844:	80 93 0f 01 	sts	0x010F, r24	; 0x80010f <IOB6>
    3848:	86 e0       	ldi	r24, 0x06	; 6
    384a:	90 e0       	ldi	r25, 0x00	; 0
    384c:	0e 94 36 26 	call	0x4c6c	; 0x4c6c <eeprom_read_byte>
    3850:	a8 2e       	mov	r10, r24
    3852:	80 93 2b 09 	sts	0x092B, r24	; 0x80092b <IOB7>
    3856:	87 e0       	ldi	r24, 0x07	; 7
    3858:	90 e0       	ldi	r25, 0x00	; 0
    385a:	0e 94 36 26 	call	0x4c6c	; 0x4c6c <eeprom_read_byte>
    385e:	b8 2e       	mov	r11, r24
    3860:	80 93 2e 09 	sts	0x092E, r24	; 0x80092e <LED>
    3864:	88 e0       	ldi	r24, 0x08	; 8
    3866:	90 e0       	ldi	r25, 0x00	; 0
    3868:	0e 94 36 26 	call	0x4c6c	; 0x4c6c <eeprom_read_byte>
    386c:	18 2f       	mov	r17, r24
    386e:	c8 2e       	mov	r12, r24
    3870:	d1 2c       	mov	r13, r1
    3872:	e1 2c       	mov	r14, r1
    3874:	f1 2c       	mov	r15, r1
    3876:	c0 92 34 09 	sts	0x0934, r12	; 0x800934 <UBRR_VAL>
    387a:	d0 92 35 09 	sts	0x0935, r13	; 0x800935 <UBRR_VAL+0x1>
    387e:	e0 92 36 09 	sts	0x0936, r14	; 0x800936 <UBRR_VAL+0x2>
    3882:	f0 92 37 09 	sts	0x0937, r15	; 0x800937 <UBRR_VAL+0x3>
    3886:	89 e0       	ldi	r24, 0x09	; 9
    3888:	90 e0       	ldi	r25, 0x00	; 0
    388a:	0e 94 36 26 	call	0x4c6c	; 0x4c6c <eeprom_read_byte>
    388e:	38 2e       	mov	r3, r24
    3890:	80 93 33 09 	sts	0x0933, r24	; 0x800933 <Motion_Delay_Highbyte>
    3894:	8a e0       	ldi	r24, 0x0A	; 10
    3896:	90 e0       	ldi	r25, 0x00	; 0
    3898:	0e 94 36 26 	call	0x4c6c	; 0x4c6c <eeprom_read_byte>
    389c:	48 2e       	mov	r4, r24
    389e:	80 93 29 09 	sts	0x0929, r24	; 0x800929 <Motion_Delay_Lowbyte>
    38a2:	8b e0       	ldi	r24, 0x0B	; 11
    38a4:	90 e0       	ldi	r25, 0x00	; 0
    38a6:	0e 94 36 26 	call	0x4c6c	; 0x4c6c <eeprom_read_byte>
    38aa:	58 2e       	mov	r5, r24
    38ac:	80 93 2a 09 	sts	0x092A, r24	; 0x80092a <Speed_Filter>
    38b0:	8c e0       	ldi	r24, 0x0C	; 12
    38b2:	90 e0       	ldi	r25, 0x00	; 0
    38b4:	0e 94 36 26 	call	0x4c6c	; 0x4c6c <eeprom_read_byte>
    38b8:	68 2e       	mov	r6, r24
    38ba:	80 93 1d 01 	sts	0x011D, r24	; 0x80011d <Min_Speed_Highbyte>
    38be:	8d e0       	ldi	r24, 0x0D	; 13
    38c0:	90 e0       	ldi	r25, 0x00	; 0
    38c2:	0e 94 36 26 	call	0x4c6c	; 0x4c6c <eeprom_read_byte>
    38c6:	78 2e       	mov	r7, r24
    38c8:	80 93 1c 01 	sts	0x011C, r24	; 0x80011c <Min_Speed_Lowbyte>
    38cc:	8e e0       	ldi	r24, 0x0E	; 14
    38ce:	90 e0       	ldi	r25, 0x00	; 0
    38d0:	0e 94 36 26 	call	0x4c6c	; 0x4c6c <eeprom_read_byte>
    38d4:	88 2e       	mov	r8, r24
    38d6:	80 93 12 01 	sts	0x0112, r24	; 0x800112 <Max_Speed_Highbyte>
    38da:	8f e0       	ldi	r24, 0x0F	; 15
    38dc:	90 e0       	ldi	r25, 0x00	; 0
    38de:	0e 94 36 26 	call	0x4c6c	; 0x4c6c <eeprom_read_byte>
    38e2:	98 2f       	mov	r25, r24
    38e4:	80 93 14 01 	sts	0x0114, r24	; 0x800114 <Max_Speed_Lowbyte>
    38e8:	8f ef       	ldi	r24, 0xFF	; 255
    38ea:	28 12       	cpse	r2, r24
    38ec:	03 c0       	rjmp	.+6      	; 0x38f4 <Read_Config+0x116>
    38ee:	80 ea       	ldi	r24, 0xA0	; 160
    38f0:	80 93 21 01 	sts	0x0121, r24	; 0x800121 <Threshold>
    38f4:	8f ef       	ldi	r24, 0xFF	; 255
    38f6:	38 12       	cpse	r3, r24
    38f8:	08 c0       	rjmp	.+16     	; 0x390a <Read_Config+0x12c>
    38fa:	48 12       	cpse	r4, r24
    38fc:	06 c0       	rjmp	.+12     	; 0x390a <Read_Config+0x12c>
    38fe:	81 e0       	ldi	r24, 0x01	; 1
    3900:	80 93 33 09 	sts	0x0933, r24	; 0x800933 <Motion_Delay_Highbyte>
    3904:	84 ef       	ldi	r24, 0xF4	; 244
    3906:	80 93 29 09 	sts	0x0929, r24	; 0x800929 <Motion_Delay_Lowbyte>
    390a:	8f ef       	ldi	r24, 0xFF	; 255
    390c:	58 12       	cpse	r5, r24
    390e:	02 c0       	rjmp	.+4      	; 0x3914 <Read_Config+0x136>
    3910:	10 92 2a 09 	sts	0x092A, r1	; 0x80092a <Speed_Filter>
    3914:	8f ef       	ldi	r24, 0xFF	; 255
    3916:	68 12       	cpse	r6, r24
    3918:	06 c0       	rjmp	.+12     	; 0x3926 <Read_Config+0x148>
    391a:	78 12       	cpse	r7, r24
    391c:	04 c0       	rjmp	.+8      	; 0x3926 <Read_Config+0x148>
    391e:	10 92 1d 01 	sts	0x011D, r1	; 0x80011d <Min_Speed_Highbyte>
    3922:	10 92 1c 01 	sts	0x011C, r1	; 0x80011c <Min_Speed_Lowbyte>
    3926:	8f ef       	ldi	r24, 0xFF	; 255
    3928:	88 12       	cpse	r8, r24
    392a:	07 c0       	rjmp	.+14     	; 0x393a <Read_Config+0x15c>
    392c:	9f 3f       	cpi	r25, 0xFF	; 255
    392e:	29 f4       	brne	.+10     	; 0x393a <Read_Config+0x15c>
    3930:	84 e0       	ldi	r24, 0x04	; 4
    3932:	80 93 12 01 	sts	0x0112, r24	; 0x800112 <Max_Speed_Highbyte>
    3936:	10 92 14 01 	sts	0x0114, r1	; 0x800114 <Max_Speed_Lowbyte>
    393a:	81 e0       	ldi	r24, 0x01	; 1
    393c:	89 15       	cp	r24, r9
    393e:	10 f4       	brcc	.+4      	; 0x3944 <Read_Config+0x166>
    3940:	80 93 0f 01 	sts	0x010F, r24	; 0x80010f <IOB6>
    3944:	81 e0       	ldi	r24, 0x01	; 1
    3946:	8a 15       	cp	r24, r10
    3948:	10 f4       	brcc	.+4      	; 0x394e <Read_Config+0x170>
    394a:	80 93 2b 09 	sts	0x092B, r24	; 0x80092b <IOB7>
    394e:	81 e0       	ldi	r24, 0x01	; 1
    3950:	8b 15       	cp	r24, r11
    3952:	10 f4       	brcc	.+4      	; 0x3958 <Read_Config+0x17a>
    3954:	80 93 2e 09 	sts	0x092E, r24	; 0x80092e <LED>
    3958:	0b 30       	cpi	r16, 0x0B	; 11
    395a:	18 f0       	brcs	.+6      	; 0x3962 <Read_Config+0x184>
    395c:	88 e0       	ldi	r24, 0x08	; 8
    395e:	80 93 13 01 	sts	0x0113, r24	; 0x800113 <Samples>
    3962:	d1 50       	subi	r29, 0x01	; 1
    3964:	d2 30       	cpi	r29, 0x02	; 2
    3966:	18 f0       	brcs	.+6      	; 0x396e <Read_Config+0x190>
    3968:	81 e0       	ldi	r24, 0x01	; 1
    396a:	80 93 22 01 	sts	0x0122, r24	; 0x800122 <Mode>
    396e:	12 30       	cpi	r17, 0x02	; 2
    3970:	50 f1       	brcs	.+84     	; 0x39c6 <Read_Config+0x1e8>
    3972:	83 e0       	ldi	r24, 0x03	; 3
    3974:	c8 16       	cp	r12, r24
    3976:	d1 04       	cpc	r13, r1
    3978:	e1 04       	cpc	r14, r1
    397a:	f1 04       	cpc	r15, r1
    397c:	21 f1       	breq	.+72     	; 0x39c6 <Read_Config+0x1e8>
    397e:	8c e0       	ldi	r24, 0x0C	; 12
    3980:	c8 16       	cp	r12, r24
    3982:	d1 04       	cpc	r13, r1
    3984:	e1 04       	cpc	r14, r1
    3986:	f1 04       	cpc	r15, r1
    3988:	f1 f0       	breq	.+60     	; 0x39c6 <Read_Config+0x1e8>
    398a:	89 e1       	ldi	r24, 0x19	; 25
    398c:	c8 16       	cp	r12, r24
    398e:	d1 04       	cpc	r13, r1
    3990:	e1 04       	cpc	r14, r1
    3992:	f1 04       	cpc	r15, r1
    3994:	c1 f0       	breq	.+48     	; 0x39c6 <Read_Config+0x1e8>
    3996:	83 e3       	ldi	r24, 0x33	; 51
    3998:	c8 16       	cp	r12, r24
    399a:	d1 04       	cpc	r13, r1
    399c:	e1 04       	cpc	r14, r1
    399e:	f1 04       	cpc	r15, r1
    39a0:	91 f0       	breq	.+36     	; 0x39c6 <Read_Config+0x1e8>
    39a2:	87 e6       	ldi	r24, 0x67	; 103
    39a4:	c8 16       	cp	r12, r24
    39a6:	d1 04       	cpc	r13, r1
    39a8:	e1 04       	cpc	r14, r1
    39aa:	f1 04       	cpc	r15, r1
    39ac:	61 f0       	breq	.+24     	; 0x39c6 <Read_Config+0x1e8>
    39ae:	89 e1       	ldi	r24, 0x19	; 25
    39b0:	90 e0       	ldi	r25, 0x00	; 0
    39b2:	a0 e0       	ldi	r26, 0x00	; 0
    39b4:	b0 e0       	ldi	r27, 0x00	; 0
    39b6:	80 93 34 09 	sts	0x0934, r24	; 0x800934 <UBRR_VAL>
    39ba:	90 93 35 09 	sts	0x0935, r25	; 0x800935 <UBRR_VAL+0x1>
    39be:	a0 93 36 09 	sts	0x0936, r26	; 0x800936 <UBRR_VAL+0x2>
    39c2:	b0 93 37 09 	sts	0x0937, r27	; 0x800937 <UBRR_VAL+0x3>
    39c6:	c2 30       	cpi	r28, 0x02	; 2
    39c8:	79 f0       	breq	.+30     	; 0x39e8 <Read_Config+0x20a>
    39ca:	c4 30       	cpi	r28, 0x04	; 4
    39cc:	69 f0       	breq	.+26     	; 0x39e8 <Read_Config+0x20a>
    39ce:	c8 30       	cpi	r28, 0x08	; 8
    39d0:	59 f0       	breq	.+22     	; 0x39e8 <Read_Config+0x20a>
    39d2:	c0 31       	cpi	r28, 0x10	; 16
    39d4:	49 f0       	breq	.+18     	; 0x39e8 <Read_Config+0x20a>
    39d6:	c0 32       	cpi	r28, 0x20	; 32
    39d8:	39 f0       	breq	.+14     	; 0x39e8 <Read_Config+0x20a>
    39da:	c0 34       	cpi	r28, 0x40	; 64
    39dc:	29 f0       	breq	.+10     	; 0x39e8 <Read_Config+0x20a>
    39de:	c0 38       	cpi	r28, 0x80	; 128
    39e0:	19 f0       	breq	.+6      	; 0x39e8 <Read_Config+0x20a>
    39e2:	80 e8       	ldi	r24, 0x80	; 128
    39e4:	80 93 15 01 	sts	0x0115, r24	; 0x800115 <ADC_Prescaler>
    39e8:	80 91 33 09 	lds	r24, 0x0933	; 0x800933 <Motion_Delay_Highbyte>
    39ec:	90 e0       	ldi	r25, 0x00	; 0
    39ee:	98 2f       	mov	r25, r24
    39f0:	88 27       	eor	r24, r24
    39f2:	20 91 29 09 	lds	r18, 0x0929	; 0x800929 <Motion_Delay_Lowbyte>
    39f6:	82 0f       	add	r24, r18
    39f8:	91 1d       	adc	r25, r1
    39fa:	90 93 17 01 	sts	0x0117, r25	; 0x800117 <Motion_Delay+0x1>
    39fe:	80 93 16 01 	sts	0x0116, r24	; 0x800116 <Motion_Delay>
    3a02:	80 91 1c 01 	lds	r24, 0x011C	; 0x80011c <Min_Speed_Lowbyte>
    3a06:	80 93 27 01 	sts	0x0127, r24	; 0x800127 <Min_Speed>
    3a0a:	80 91 14 01 	lds	r24, 0x0114	; 0x800114 <Max_Speed_Lowbyte>
    3a0e:	80 93 20 01 	sts	0x0120, r24	; 0x800120 <Max_Speed>
    3a12:	81 e0       	ldi	r24, 0x01	; 1
    3a14:	90 e0       	ldi	r25, 0x00	; 0
    3a16:	00 90 13 01 	lds	r0, 0x0113	; 0x800113 <Samples>
    3a1a:	02 c0       	rjmp	.+4      	; 0x3a20 <Read_Config+0x242>
    3a1c:	88 0f       	add	r24, r24
    3a1e:	99 1f       	adc	r25, r25
    3a20:	0a 94       	dec	r0
    3a22:	e2 f7       	brpl	.-8      	; 0x3a1c <Read_Config+0x23e>
    3a24:	90 93 19 01 	sts	0x0119, r25	; 0x800119 <SampleCount+0x1>
    3a28:	80 93 18 01 	sts	0x0118, r24	; 0x800118 <SampleCount>
    3a2c:	80 91 1e 01 	lds	r24, 0x011E	; 0x80011e <bfly>
    3a30:	90 91 1f 01 	lds	r25, 0x011F	; 0x80011f <bfly+0x1>
    3a34:	00 97       	sbiw	r24, 0x00	; 0
    3a36:	11 f0       	breq	.+4      	; 0x3a3c <Read_Config+0x25e>
    3a38:	0e 94 9e 25 	call	0x4b3c	; 0x4b3c <free>
    3a3c:	80 91 23 01 	lds	r24, 0x0123	; 0x800123 <spectrum>
    3a40:	90 91 24 01 	lds	r25, 0x0124	; 0x800124 <spectrum+0x1>
    3a44:	00 97       	sbiw	r24, 0x00	; 0
    3a46:	11 f0       	breq	.+4      	; 0x3a4c <Read_Config+0x26e>
    3a48:	0e 94 9e 25 	call	0x4b3c	; 0x4b3c <free>
    3a4c:	e0 90 18 01 	lds	r14, 0x0118	; 0x800118 <SampleCount>
    3a50:	f0 90 19 01 	lds	r15, 0x0119	; 0x800119 <SampleCount+0x1>
    3a54:	c7 01       	movw	r24, r14
    3a56:	88 0f       	add	r24, r24
    3a58:	99 1f       	adc	r25, r25
    3a5a:	88 0f       	add	r24, r24
    3a5c:	99 1f       	adc	r25, r25
    3a5e:	0e 94 09 25 	call	0x4a12	; 0x4a12 <malloc>
    3a62:	90 93 1f 01 	sts	0x011F, r25	; 0x80011f <bfly+0x1>
    3a66:	80 93 1e 01 	sts	0x011E, r24	; 0x80011e <bfly>
    3a6a:	c7 01       	movw	r24, r14
    3a6c:	96 95       	lsr	r25
    3a6e:	87 95       	ror	r24
    3a70:	88 0f       	add	r24, r24
    3a72:	99 1f       	adc	r25, r25
    3a74:	88 0f       	add	r24, r24
    3a76:	99 1f       	adc	r25, r25
    3a78:	0e 94 09 25 	call	0x4a12	; 0x4a12 <malloc>
    3a7c:	90 93 24 01 	sts	0x0124, r25	; 0x800124 <spectrum+0x1>
    3a80:	80 93 23 01 	sts	0x0123, r24	; 0x800123 <spectrum>
    3a84:	df 91       	pop	r29
    3a86:	cf 91       	pop	r28
    3a88:	1f 91       	pop	r17
    3a8a:	0f 91       	pop	r16
    3a8c:	ff 90       	pop	r15
    3a8e:	ef 90       	pop	r14
    3a90:	df 90       	pop	r13
    3a92:	cf 90       	pop	r12
    3a94:	bf 90       	pop	r11
    3a96:	af 90       	pop	r10
    3a98:	9f 90       	pop	r9
    3a9a:	8f 90       	pop	r8
    3a9c:	7f 90       	pop	r7
    3a9e:	6f 90       	pop	r6
    3aa0:	5f 90       	pop	r5
    3aa2:	4f 90       	pop	r4
    3aa4:	3f 90       	pop	r3
    3aa6:	2f 90       	pop	r2
    3aa8:	08 95       	ret

00003aaa <Set_Config>:
    3aaa:	cf 93       	push	r28
    3aac:	df 93       	push	r29
    3aae:	80 e0       	ldi	r24, 0x00	; 0
    3ab0:	0e 94 c6 23 	call	0x478c	; 0x478c <uart_wait_getc>
    3ab4:	80 93 22 01 	sts	0x0122, r24	; 0x800122 <Mode>
    3ab8:	68 2f       	mov	r22, r24
    3aba:	83 e0       	ldi	r24, 0x03	; 3
    3abc:	90 e0       	ldi	r25, 0x00	; 0
    3abe:	0e 94 3e 26 	call	0x4c7c	; 0x4c7c <eeprom_write_byte>
    3ac2:	80 e0       	ldi	r24, 0x00	; 0
    3ac4:	0e 94 c6 23 	call	0x478c	; 0x478c <uart_wait_getc>
    3ac8:	80 93 21 01 	sts	0x0121, r24	; 0x800121 <Threshold>
    3acc:	68 2f       	mov	r22, r24
    3ace:	81 e0       	ldi	r24, 0x01	; 1
    3ad0:	90 e0       	ldi	r25, 0x00	; 0
    3ad2:	0e 94 3e 26 	call	0x4c7c	; 0x4c7c <eeprom_write_byte>
    3ad6:	80 e0       	ldi	r24, 0x00	; 0
    3ad8:	0e 94 c6 23 	call	0x478c	; 0x478c <uart_wait_getc>
    3adc:	80 93 13 01 	sts	0x0113, r24	; 0x800113 <Samples>
    3ae0:	68 2f       	mov	r22, r24
    3ae2:	82 e0       	ldi	r24, 0x02	; 2
    3ae4:	90 e0       	ldi	r25, 0x00	; 0
    3ae6:	0e 94 3e 26 	call	0x4c7c	; 0x4c7c <eeprom_write_byte>
    3aea:	80 e0       	ldi	r24, 0x00	; 0
    3aec:	0e 94 c6 23 	call	0x478c	; 0x478c <uart_wait_getc>
    3af0:	80 93 15 01 	sts	0x0115, r24	; 0x800115 <ADC_Prescaler>
    3af4:	68 2f       	mov	r22, r24
    3af6:	84 e0       	ldi	r24, 0x04	; 4
    3af8:	90 e0       	ldi	r25, 0x00	; 0
    3afa:	0e 94 3e 26 	call	0x4c7c	; 0x4c7c <eeprom_write_byte>
    3afe:	80 e0       	ldi	r24, 0x00	; 0
    3b00:	0e 94 c6 23 	call	0x478c	; 0x478c <uart_wait_getc>
    3b04:	80 93 0f 01 	sts	0x010F, r24	; 0x80010f <IOB6>
    3b08:	68 2f       	mov	r22, r24
    3b0a:	85 e0       	ldi	r24, 0x05	; 5
    3b0c:	90 e0       	ldi	r25, 0x00	; 0
    3b0e:	0e 94 3e 26 	call	0x4c7c	; 0x4c7c <eeprom_write_byte>
    3b12:	80 e0       	ldi	r24, 0x00	; 0
    3b14:	0e 94 c6 23 	call	0x478c	; 0x478c <uart_wait_getc>
    3b18:	80 93 2b 09 	sts	0x092B, r24	; 0x80092b <IOB7>
    3b1c:	68 2f       	mov	r22, r24
    3b1e:	86 e0       	ldi	r24, 0x06	; 6
    3b20:	90 e0       	ldi	r25, 0x00	; 0
    3b22:	0e 94 3e 26 	call	0x4c7c	; 0x4c7c <eeprom_write_byte>
    3b26:	80 e0       	ldi	r24, 0x00	; 0
    3b28:	0e 94 c6 23 	call	0x478c	; 0x478c <uart_wait_getc>
    3b2c:	80 93 2e 09 	sts	0x092E, r24	; 0x80092e <LED>
    3b30:	68 2f       	mov	r22, r24
    3b32:	87 e0       	ldi	r24, 0x07	; 7
    3b34:	90 e0       	ldi	r25, 0x00	; 0
    3b36:	0e 94 3e 26 	call	0x4c7c	; 0x4c7c <eeprom_write_byte>
    3b3a:	80 e0       	ldi	r24, 0x00	; 0
    3b3c:	0e 94 c6 23 	call	0x478c	; 0x478c <uart_wait_getc>
    3b40:	ac 01       	movw	r20, r24
    3b42:	99 0f       	add	r25, r25
    3b44:	66 0b       	sbc	r22, r22
    3b46:	77 0b       	sbc	r23, r23
    3b48:	40 93 34 09 	sts	0x0934, r20	; 0x800934 <UBRR_VAL>
    3b4c:	50 93 35 09 	sts	0x0935, r21	; 0x800935 <UBRR_VAL+0x1>
    3b50:	60 93 36 09 	sts	0x0936, r22	; 0x800936 <UBRR_VAL+0x2>
    3b54:	70 93 37 09 	sts	0x0937, r23	; 0x800937 <UBRR_VAL+0x3>
    3b58:	68 2f       	mov	r22, r24
    3b5a:	88 e0       	ldi	r24, 0x08	; 8
    3b5c:	90 e0       	ldi	r25, 0x00	; 0
    3b5e:	0e 94 3e 26 	call	0x4c7c	; 0x4c7c <eeprom_write_byte>
    3b62:	80 e0       	ldi	r24, 0x00	; 0
    3b64:	0e 94 c6 23 	call	0x478c	; 0x478c <uart_wait_getc>
    3b68:	80 93 33 09 	sts	0x0933, r24	; 0x800933 <Motion_Delay_Highbyte>
    3b6c:	68 2f       	mov	r22, r24
    3b6e:	89 e0       	ldi	r24, 0x09	; 9
    3b70:	90 e0       	ldi	r25, 0x00	; 0
    3b72:	0e 94 3e 26 	call	0x4c7c	; 0x4c7c <eeprom_write_byte>
    3b76:	80 e0       	ldi	r24, 0x00	; 0
    3b78:	0e 94 c6 23 	call	0x478c	; 0x478c <uart_wait_getc>
    3b7c:	80 93 29 09 	sts	0x0929, r24	; 0x800929 <Motion_Delay_Lowbyte>
    3b80:	68 2f       	mov	r22, r24
    3b82:	8a e0       	ldi	r24, 0x0A	; 10
    3b84:	90 e0       	ldi	r25, 0x00	; 0
    3b86:	0e 94 3e 26 	call	0x4c7c	; 0x4c7c <eeprom_write_byte>
    3b8a:	80 e0       	ldi	r24, 0x00	; 0
    3b8c:	0e 94 c6 23 	call	0x478c	; 0x478c <uart_wait_getc>
    3b90:	80 93 2a 09 	sts	0x092A, r24	; 0x80092a <Speed_Filter>
    3b94:	68 2f       	mov	r22, r24
    3b96:	8b e0       	ldi	r24, 0x0B	; 11
    3b98:	90 e0       	ldi	r25, 0x00	; 0
    3b9a:	0e 94 3e 26 	call	0x4c7c	; 0x4c7c <eeprom_write_byte>
    3b9e:	80 e0       	ldi	r24, 0x00	; 0
    3ba0:	0e 94 c6 23 	call	0x478c	; 0x478c <uart_wait_getc>
    3ba4:	80 93 1d 01 	sts	0x011D, r24	; 0x80011d <Min_Speed_Highbyte>
    3ba8:	68 2f       	mov	r22, r24
    3baa:	8c e0       	ldi	r24, 0x0C	; 12
    3bac:	90 e0       	ldi	r25, 0x00	; 0
    3bae:	0e 94 3e 26 	call	0x4c7c	; 0x4c7c <eeprom_write_byte>
    3bb2:	80 e0       	ldi	r24, 0x00	; 0
    3bb4:	0e 94 c6 23 	call	0x478c	; 0x478c <uart_wait_getc>
    3bb8:	80 93 1c 01 	sts	0x011C, r24	; 0x80011c <Min_Speed_Lowbyte>
    3bbc:	68 2f       	mov	r22, r24
    3bbe:	8d e0       	ldi	r24, 0x0D	; 13
    3bc0:	90 e0       	ldi	r25, 0x00	; 0
    3bc2:	0e 94 3e 26 	call	0x4c7c	; 0x4c7c <eeprom_write_byte>
    3bc6:	80 e0       	ldi	r24, 0x00	; 0
    3bc8:	0e 94 c6 23 	call	0x478c	; 0x478c <uart_wait_getc>
    3bcc:	80 93 12 01 	sts	0x0112, r24	; 0x800112 <Max_Speed_Highbyte>
    3bd0:	68 2f       	mov	r22, r24
    3bd2:	8e e0       	ldi	r24, 0x0E	; 14
    3bd4:	90 e0       	ldi	r25, 0x00	; 0
    3bd6:	0e 94 3e 26 	call	0x4c7c	; 0x4c7c <eeprom_write_byte>
    3bda:	80 e0       	ldi	r24, 0x00	; 0
    3bdc:	0e 94 c6 23 	call	0x478c	; 0x478c <uart_wait_getc>
    3be0:	80 93 14 01 	sts	0x0114, r24	; 0x800114 <Max_Speed_Lowbyte>
    3be4:	68 2f       	mov	r22, r24
    3be6:	8f e0       	ldi	r24, 0x0F	; 15
    3be8:	90 e0       	ldi	r25, 0x00	; 0
    3bea:	0e 94 3e 26 	call	0x4c7c	; 0x4c7c <eeprom_write_byte>
    3bee:	80 91 33 09 	lds	r24, 0x0933	; 0x800933 <Motion_Delay_Highbyte>
    3bf2:	90 e0       	ldi	r25, 0x00	; 0
    3bf4:	98 2f       	mov	r25, r24
    3bf6:	88 27       	eor	r24, r24
    3bf8:	20 91 29 09 	lds	r18, 0x0929	; 0x800929 <Motion_Delay_Lowbyte>
    3bfc:	82 0f       	add	r24, r18
    3bfe:	91 1d       	adc	r25, r1
    3c00:	90 93 17 01 	sts	0x0117, r25	; 0x800117 <Motion_Delay+0x1>
    3c04:	80 93 16 01 	sts	0x0116, r24	; 0x800116 <Motion_Delay>
    3c08:	80 91 1c 01 	lds	r24, 0x011C	; 0x80011c <Min_Speed_Lowbyte>
    3c0c:	80 93 27 01 	sts	0x0127, r24	; 0x800127 <Min_Speed>
    3c10:	80 91 14 01 	lds	r24, 0x0114	; 0x800114 <Max_Speed_Lowbyte>
    3c14:	80 93 20 01 	sts	0x0120, r24	; 0x800120 <Max_Speed>
    3c18:	81 e0       	ldi	r24, 0x01	; 1
    3c1a:	90 e0       	ldi	r25, 0x00	; 0
    3c1c:	00 90 13 01 	lds	r0, 0x0113	; 0x800113 <Samples>
    3c20:	02 c0       	rjmp	.+4      	; 0x3c26 <Set_Config+0x17c>
    3c22:	88 0f       	add	r24, r24
    3c24:	99 1f       	adc	r25, r25
    3c26:	0a 94       	dec	r0
    3c28:	e2 f7       	brpl	.-8      	; 0x3c22 <Set_Config+0x178>
    3c2a:	90 93 19 01 	sts	0x0119, r25	; 0x800119 <SampleCount+0x1>
    3c2e:	80 93 18 01 	sts	0x0118, r24	; 0x800118 <SampleCount>
    3c32:	80 91 1e 01 	lds	r24, 0x011E	; 0x80011e <bfly>
    3c36:	90 91 1f 01 	lds	r25, 0x011F	; 0x80011f <bfly+0x1>
    3c3a:	00 97       	sbiw	r24, 0x00	; 0
    3c3c:	11 f0       	breq	.+4      	; 0x3c42 <Set_Config+0x198>
    3c3e:	0e 94 9e 25 	call	0x4b3c	; 0x4b3c <free>
    3c42:	80 91 23 01 	lds	r24, 0x0123	; 0x800123 <spectrum>
    3c46:	90 91 24 01 	lds	r25, 0x0124	; 0x800124 <spectrum+0x1>
    3c4a:	00 97       	sbiw	r24, 0x00	; 0
    3c4c:	11 f0       	breq	.+4      	; 0x3c52 <Set_Config+0x1a8>
    3c4e:	0e 94 9e 25 	call	0x4b3c	; 0x4b3c <free>
    3c52:	c0 91 18 01 	lds	r28, 0x0118	; 0x800118 <SampleCount>
    3c56:	d0 91 19 01 	lds	r29, 0x0119	; 0x800119 <SampleCount+0x1>
    3c5a:	ce 01       	movw	r24, r28
    3c5c:	88 0f       	add	r24, r24
    3c5e:	99 1f       	adc	r25, r25
    3c60:	88 0f       	add	r24, r24
    3c62:	99 1f       	adc	r25, r25
    3c64:	0e 94 09 25 	call	0x4a12	; 0x4a12 <malloc>
    3c68:	90 93 1f 01 	sts	0x011F, r25	; 0x80011f <bfly+0x1>
    3c6c:	80 93 1e 01 	sts	0x011E, r24	; 0x80011e <bfly>
    3c70:	ce 01       	movw	r24, r28
    3c72:	96 95       	lsr	r25
    3c74:	87 95       	ror	r24
    3c76:	88 0f       	add	r24, r24
    3c78:	99 1f       	adc	r25, r25
    3c7a:	88 0f       	add	r24, r24
    3c7c:	99 1f       	adc	r25, r25
    3c7e:	0e 94 09 25 	call	0x4a12	; 0x4a12 <malloc>
    3c82:	90 93 24 01 	sts	0x0124, r25	; 0x800124 <spectrum+0x1>
    3c86:	80 93 23 01 	sts	0x0123, r24	; 0x800123 <spectrum>
    3c8a:	60 91 34 09 	lds	r22, 0x0934	; 0x800934 <UBRR_VAL>
    3c8e:	70 91 35 09 	lds	r23, 0x0935	; 0x800935 <UBRR_VAL+0x1>
    3c92:	80 91 36 09 	lds	r24, 0x0936	; 0x800936 <UBRR_VAL+0x2>
    3c96:	90 91 37 09 	lds	r25, 0x0937	; 0x800937 <UBRR_VAL+0x3>
    3c9a:	40 e0       	ldi	r20, 0x00	; 0
    3c9c:	0e 94 56 23 	call	0x46ac	; 0x46ac <uart_init>
    3ca0:	80 91 15 01 	lds	r24, 0x0115	; 0x800115 <ADC_Prescaler>
    3ca4:	df 91       	pop	r29
    3ca6:	cf 91       	pop	r28
    3ca8:	0c 94 ab 1b 	jmp	0x3756	; 0x3756 <ADC_Init>

00003cac <PC_Mode>:
    3cac:	cf 93       	push	r28
    3cae:	df 93       	push	r29
    3cb0:	80 e0       	ldi	r24, 0x00	; 0
    3cb2:	0e 94 c6 23 	call	0x478c	; 0x478c <uart_wait_getc>
    3cb6:	80 93 0e 01 	sts	0x010E, r24	; 0x80010e <__data_end>
    3cba:	8b 3f       	cpi	r24, 0xFB	; 251
    3cbc:	31 f0       	breq	.+12     	; 0x3cca <PC_Mode+0x1e>
    3cbe:	80 91 0e 01 	lds	r24, 0x010E	; 0x80010e <__data_end>
    3cc2:	8e 3f       	cpi	r24, 0xFE	; 254
    3cc4:	09 f0       	breq	.+2      	; 0x3cc8 <PC_Mode+0x1c>
    3cc6:	a4 c0       	rjmp	.+328    	; 0x3e10 <PC_Mode+0x164>
    3cc8:	ae c0       	rjmp	.+348    	; 0x3e26 <PC_Mode+0x17a>
    3cca:	14 98       	cbi	0x02, 4	; 2
    3ccc:	2e 98       	cbi	0x05, 6	; 5
    3cce:	2f 9a       	sbi	0x05, 7	; 5
    3cd0:	10 92 26 01 	sts	0x0126, r1	; 0x800126 <i+0x1>
    3cd4:	10 92 25 01 	sts	0x0125, r1	; 0x800125 <i>
    3cd8:	c0 91 25 01 	lds	r28, 0x0125	; 0x800125 <i>
    3cdc:	d0 91 26 01 	lds	r29, 0x0126	; 0x800126 <i+0x1>
    3ce0:	80 91 18 01 	lds	r24, 0x0118	; 0x800118 <SampleCount>
    3ce4:	90 91 19 01 	lds	r25, 0x0119	; 0x800119 <SampleCount+0x1>
    3ce8:	c8 17       	cp	r28, r24
    3cea:	d9 07       	cpc	r29, r25
    3cec:	b8 f4       	brcc	.+46     	; 0x3d1c <PC_Mode+0x70>
    3cee:	80 e0       	ldi	r24, 0x00	; 0
    3cf0:	0e 94 da 1b 	call	0x37b4	; 0x37b4 <ADC_Read>
    3cf4:	cc 0f       	add	r28, r28
    3cf6:	dd 1f       	adc	r29, r29
    3cf8:	c8 5d       	subi	r28, 0xD8	; 216
    3cfa:	de 4f       	sbci	r29, 0xFE	; 254
    3cfc:	96 95       	lsr	r25
    3cfe:	87 95       	ror	r24
    3d00:	96 95       	lsr	r25
    3d02:	87 95       	ror	r24
    3d04:	99 83       	std	Y+1, r25	; 0x01
    3d06:	88 83       	st	Y, r24
    3d08:	80 91 25 01 	lds	r24, 0x0125	; 0x800125 <i>
    3d0c:	90 91 26 01 	lds	r25, 0x0126	; 0x800126 <i+0x1>
    3d10:	01 96       	adiw	r24, 0x01	; 1
    3d12:	90 93 26 01 	sts	0x0126, r25	; 0x800126 <i+0x1>
    3d16:	80 93 25 01 	sts	0x0125, r24	; 0x800125 <i>
    3d1a:	de cf       	rjmp	.-68     	; 0x3cd8 <PC_Mode+0x2c>
    3d1c:	10 92 26 01 	sts	0x0126, r1	; 0x800126 <i+0x1>
    3d20:	10 92 25 01 	sts	0x0125, r1	; 0x800125 <i>
    3d24:	80 91 25 01 	lds	r24, 0x0125	; 0x800125 <i>
    3d28:	90 91 26 01 	lds	r25, 0x0126	; 0x800126 <i+0x1>
    3d2c:	20 91 18 01 	lds	r18, 0x0118	; 0x800118 <SampleCount>
    3d30:	30 91 19 01 	lds	r19, 0x0119	; 0x800119 <SampleCount+0x1>
    3d34:	82 17       	cp	r24, r18
    3d36:	93 07       	cpc	r25, r19
    3d38:	10 f6       	brcc	.-124    	; 0x3cbe <PC_Mode+0x12>
    3d3a:	20 91 22 01 	lds	r18, 0x0122	; 0x800122 <Mode>
    3d3e:	21 30       	cpi	r18, 0x01	; 1
    3d40:	e1 f4       	brne	.+56     	; 0x3d7a <PC_Mode+0xce>
    3d42:	88 0f       	add	r24, r24
    3d44:	99 1f       	adc	r25, r25
    3d46:	fc 01       	movw	r30, r24
    3d48:	e8 5d       	subi	r30, 0xD8	; 216
    3d4a:	fe 4f       	sbci	r31, 0xFE	; 254
    3d4c:	80 91 21 01 	lds	r24, 0x0121	; 0x800121 <Threshold>
    3d50:	90 e0       	ldi	r25, 0x00	; 0
    3d52:	20 81       	ld	r18, Z
    3d54:	31 81       	ldd	r19, Z+1	; 0x01
    3d56:	82 17       	cp	r24, r18
    3d58:	93 07       	cpc	r25, r19
    3d5a:	7c f4       	brge	.+30     	; 0x3d7a <PC_Mode+0xce>
    3d5c:	80 91 2e 09 	lds	r24, 0x092E	; 0x80092e <LED>
    3d60:	81 30       	cpi	r24, 0x01	; 1
    3d62:	09 f4       	brne	.+2      	; 0x3d66 <PC_Mode+0xba>
    3d64:	14 9a       	sbi	0x02, 4	; 2
    3d66:	80 91 0f 01 	lds	r24, 0x010F	; 0x80010f <IOB6>
    3d6a:	81 30       	cpi	r24, 0x01	; 1
    3d6c:	09 f4       	brne	.+2      	; 0x3d70 <PC_Mode+0xc4>
    3d6e:	2e 9a       	sbi	0x05, 6	; 5
    3d70:	80 91 2b 09 	lds	r24, 0x092B	; 0x80092b <IOB7>
    3d74:	81 30       	cpi	r24, 0x01	; 1
    3d76:	09 f4       	brne	.+2      	; 0x3d7a <PC_Mode+0xce>
    3d78:	2f 98       	cbi	0x05, 7	; 5
    3d7a:	e0 91 25 01 	lds	r30, 0x0125	; 0x800125 <i>
    3d7e:	f0 91 26 01 	lds	r31, 0x0126	; 0x800126 <i+0x1>
    3d82:	ee 0f       	add	r30, r30
    3d84:	ff 1f       	adc	r31, r31
    3d86:	e8 5d       	subi	r30, 0xD8	; 216
    3d88:	fe 4f       	sbci	r31, 0xFE	; 254
    3d8a:	60 e0       	ldi	r22, 0x00	; 0
    3d8c:	80 81       	ld	r24, Z
    3d8e:	0e 94 8e 23 	call	0x471c	; 0x471c <uart_putc>
    3d92:	80 91 25 01 	lds	r24, 0x0125	; 0x800125 <i>
    3d96:	90 91 26 01 	lds	r25, 0x0126	; 0x800126 <i+0x1>
    3d9a:	01 96       	adiw	r24, 0x01	; 1
    3d9c:	90 93 26 01 	sts	0x0126, r25	; 0x800126 <i+0x1>
    3da0:	80 93 25 01 	sts	0x0125, r24	; 0x800125 <i>
    3da4:	bf cf       	rjmp	.-130    	; 0x3d24 <PC_Mode+0x78>
    3da6:	60 91 1e 01 	lds	r22, 0x011E	; 0x80011e <bfly>
    3daa:	70 91 1f 01 	lds	r23, 0x011F	; 0x80011f <bfly+0x1>
    3dae:	81 15       	cp	r24, r1
    3db0:	21 e0       	ldi	r18, 0x01	; 1
    3db2:	92 07       	cpc	r25, r18
    3db4:	09 f4       	brne	.+2      	; 0x3db8 <PC_Mode+0x10c>
    3db6:	aa c0       	rjmp	.+340    	; 0x3f0c <PC_Mode+0x260>
    3db8:	08 f0       	brcs	.+2      	; 0x3dbc <PC_Mode+0x110>
    3dba:	77 c0       	rjmp	.+238    	; 0x3eaa <PC_Mode+0x1fe>
    3dbc:	80 34       	cpi	r24, 0x40	; 64
    3dbe:	91 05       	cpc	r25, r1
    3dc0:	09 f0       	breq	.+2      	; 0x3dc4 <PC_Mode+0x118>
    3dc2:	5a c0       	rjmp	.+180    	; 0x3e78 <PC_Mode+0x1cc>
    3dc4:	88 e2       	ldi	r24, 0x28	; 40
    3dc6:	91 e0       	ldi	r25, 0x01	; 1
    3dc8:	0e 94 17 1a 	call	0x342e	; 0x342e <fft_input_64>
    3dcc:	80 91 1e 01 	lds	r24, 0x011E	; 0x80011e <bfly>
    3dd0:	90 91 1f 01 	lds	r25, 0x011F	; 0x80011f <bfly+0x1>
    3dd4:	0e 94 46 1a 	call	0x348c	; 0x348c <fft_execute_64>
    3dd8:	60 91 23 01 	lds	r22, 0x0123	; 0x800123 <spectrum>
    3ddc:	70 91 24 01 	lds	r23, 0x0124	; 0x800124 <spectrum+0x1>
    3de0:	80 91 1e 01 	lds	r24, 0x011E	; 0x80011e <bfly>
    3de4:	90 91 1f 01 	lds	r25, 0x011F	; 0x80011f <bfly+0x1>
    3de8:	0e 94 10 1b 	call	0x3620	; 0x3620 <fft_output_64>
    3dec:	10 92 1b 01 	sts	0x011B, r1	; 0x80011b <i2+0x1>
    3df0:	10 92 1a 01 	sts	0x011A, r1	; 0x80011a <i2>
    3df4:	20 91 1a 01 	lds	r18, 0x011A	; 0x80011a <i2>
    3df8:	30 91 1b 01 	lds	r19, 0x011B	; 0x80011b <i2+0x1>
    3dfc:	80 91 18 01 	lds	r24, 0x0118	; 0x800118 <SampleCount>
    3e00:	90 91 19 01 	lds	r25, 0x0119	; 0x800119 <SampleCount+0x1>
    3e04:	96 95       	lsr	r25
    3e06:	87 95       	ror	r24
    3e08:	28 17       	cp	r18, r24
    3e0a:	39 07       	cpc	r19, r25
    3e0c:	08 f4       	brcc	.+2      	; 0x3e10 <PC_Mode+0x164>
    3e0e:	93 c0       	rjmp	.+294    	; 0x3f36 <PC_Mode+0x28a>
    3e10:	80 91 0e 01 	lds	r24, 0x010E	; 0x80010e <__data_end>
    3e14:	8a 3f       	cpi	r24, 0xFA	; 250
    3e16:	09 f0       	breq	.+2      	; 0x3e1a <PC_Mode+0x16e>
    3e18:	b1 c0       	rjmp	.+354    	; 0x3f7c <PC_Mode+0x2d0>
    3e1a:	60 e0       	ldi	r22, 0x00	; 0
    3e1c:	86 e0       	ldi	r24, 0x06	; 6
    3e1e:	91 e0       	ldi	r25, 0x01	; 1
    3e20:	0e 94 a0 23 	call	0x4740	; 0x4740 <uart_puts>
    3e24:	ab c0       	rjmp	.+342    	; 0x3f7c <PC_Mode+0x2d0>
    3e26:	10 92 26 01 	sts	0x0126, r1	; 0x800126 <i+0x1>
    3e2a:	10 92 25 01 	sts	0x0125, r1	; 0x800125 <i>
    3e2e:	80 91 18 01 	lds	r24, 0x0118	; 0x800118 <SampleCount>
    3e32:	90 91 19 01 	lds	r25, 0x0119	; 0x800119 <SampleCount+0x1>
    3e36:	20 91 25 01 	lds	r18, 0x0125	; 0x800125 <i>
    3e3a:	30 91 26 01 	lds	r19, 0x0126	; 0x800126 <i+0x1>
    3e3e:	28 17       	cp	r18, r24
    3e40:	39 07       	cpc	r19, r25
    3e42:	08 f0       	brcs	.+2      	; 0x3e46 <PC_Mode+0x19a>
    3e44:	b0 cf       	rjmp	.-160    	; 0x3da6 <PC_Mode+0xfa>
    3e46:	80 e0       	ldi	r24, 0x00	; 0
    3e48:	0e 94 da 1b 	call	0x37b4	; 0x37b4 <ADC_Read>
    3e4c:	90 93 39 09 	sts	0x0939, r25	; 0x800939 <adcval+0x1>
    3e50:	80 93 38 09 	sts	0x0938, r24	; 0x800938 <adcval>
    3e54:	20 91 25 01 	lds	r18, 0x0125	; 0x800125 <i>
    3e58:	30 91 26 01 	lds	r19, 0x0126	; 0x800126 <i+0x1>
    3e5c:	f9 01       	movw	r30, r18
    3e5e:	ee 0f       	add	r30, r30
    3e60:	ff 1f       	adc	r31, r31
    3e62:	e8 5d       	subi	r30, 0xD8	; 216
    3e64:	fe 4f       	sbci	r31, 0xFE	; 254
    3e66:	91 83       	std	Z+1, r25	; 0x01
    3e68:	80 83       	st	Z, r24
    3e6a:	2f 5f       	subi	r18, 0xFF	; 255
    3e6c:	3f 4f       	sbci	r19, 0xFF	; 255
    3e6e:	30 93 26 01 	sts	0x0126, r19	; 0x800126 <i+0x1>
    3e72:	20 93 25 01 	sts	0x0125, r18	; 0x800125 <i>
    3e76:	db cf       	rjmp	.-74     	; 0x3e2e <PC_Mode+0x182>
    3e78:	80 38       	cpi	r24, 0x80	; 128
    3e7a:	91 05       	cpc	r25, r1
    3e7c:	09 f0       	breq	.+2      	; 0x3e80 <PC_Mode+0x1d4>
    3e7e:	46 c0       	rjmp	.+140    	; 0x3f0c <PC_Mode+0x260>
    3e80:	88 e2       	ldi	r24, 0x28	; 40
    3e82:	91 e0       	ldi	r25, 0x01	; 1
    3e84:	0e 94 3b 0d 	call	0x1a76	; 0x1a76 <fft_input_128>
    3e88:	80 91 1e 01 	lds	r24, 0x011E	; 0x80011e <bfly>
    3e8c:	90 91 1f 01 	lds	r25, 0x011F	; 0x80011f <bfly+0x1>
    3e90:	0e 94 6a 0d 	call	0x1ad4	; 0x1ad4 <fft_execute_128>
    3e94:	60 91 23 01 	lds	r22, 0x0123	; 0x800123 <spectrum>
    3e98:	70 91 24 01 	lds	r23, 0x0124	; 0x800124 <spectrum+0x1>
    3e9c:	80 91 1e 01 	lds	r24, 0x011E	; 0x80011e <bfly>
    3ea0:	90 91 1f 01 	lds	r25, 0x011F	; 0x80011f <bfly+0x1>
    3ea4:	0e 94 34 0e 	call	0x1c68	; 0x1c68 <fft_output_128>
    3ea8:	a1 cf       	rjmp	.-190    	; 0x3dec <PC_Mode+0x140>
    3eaa:	81 15       	cp	r24, r1
    3eac:	22 e0       	ldi	r18, 0x02	; 2
    3eae:	92 07       	cpc	r25, r18
    3eb0:	c1 f0       	breq	.+48     	; 0x3ee2 <PC_Mode+0x236>
    3eb2:	81 15       	cp	r24, r1
    3eb4:	94 40       	sbci	r25, 0x04	; 4
    3eb6:	51 f5       	brne	.+84     	; 0x3f0c <PC_Mode+0x260>
    3eb8:	88 e2       	ldi	r24, 0x28	; 40
    3eba:	91 e0       	ldi	r25, 0x01	; 1
    3ebc:	0e 94 67 0a 	call	0x14ce	; 0x14ce <fft_input_1024>
    3ec0:	80 91 1e 01 	lds	r24, 0x011E	; 0x80011e <bfly>
    3ec4:	90 91 1f 01 	lds	r25, 0x011F	; 0x80011f <bfly+0x1>
    3ec8:	0e 94 96 0a 	call	0x152c	; 0x152c <fft_execute_1024>
    3ecc:	60 91 23 01 	lds	r22, 0x0123	; 0x800123 <spectrum>
    3ed0:	70 91 24 01 	lds	r23, 0x0124	; 0x800124 <spectrum+0x1>
    3ed4:	80 91 1e 01 	lds	r24, 0x011E	; 0x80011e <bfly>
    3ed8:	90 91 1f 01 	lds	r25, 0x011F	; 0x80011f <bfly+0x1>
    3edc:	0e 94 60 0b 	call	0x16c0	; 0x16c0 <fft_output_1024>
    3ee0:	85 cf       	rjmp	.-246    	; 0x3dec <PC_Mode+0x140>
    3ee2:	88 e2       	ldi	r24, 0x28	; 40
    3ee4:	91 e0       	ldi	r25, 0x01	; 1
    3ee6:	0e 94 e3 17 	call	0x2fc6	; 0x2fc6 <fft_input_512>
    3eea:	80 91 1e 01 	lds	r24, 0x011E	; 0x80011e <bfly>
    3eee:	90 91 1f 01 	lds	r25, 0x011F	; 0x80011f <bfly+0x1>
    3ef2:	0e 94 12 18 	call	0x3024	; 0x3024 <fft_execute_512>
    3ef6:	60 91 23 01 	lds	r22, 0x0123	; 0x800123 <spectrum>
    3efa:	70 91 24 01 	lds	r23, 0x0124	; 0x800124 <spectrum+0x1>
    3efe:	80 91 1e 01 	lds	r24, 0x011E	; 0x80011e <bfly>
    3f02:	90 91 1f 01 	lds	r25, 0x011F	; 0x80011f <bfly+0x1>
    3f06:	0e 94 dc 18 	call	0x31b8	; 0x31b8 <fft_output_512>
    3f0a:	70 cf       	rjmp	.-288    	; 0x3dec <PC_Mode+0x140>
    3f0c:	88 e2       	ldi	r24, 0x28	; 40
    3f0e:	91 e0       	ldi	r25, 0x01	; 1
    3f10:	0e 94 4f 11 	call	0x229e	; 0x229e <fft_input_256>
    3f14:	80 91 1e 01 	lds	r24, 0x011E	; 0x80011e <bfly>
    3f18:	90 91 1f 01 	lds	r25, 0x011F	; 0x80011f <bfly+0x1>
    3f1c:	0e 94 7e 11 	call	0x22fc	; 0x22fc <fft_execute_256>
    3f20:	60 91 23 01 	lds	r22, 0x0123	; 0x800123 <spectrum>
    3f24:	70 91 24 01 	lds	r23, 0x0124	; 0x800124 <spectrum+0x1>
    3f28:	80 91 1e 01 	lds	r24, 0x011E	; 0x80011e <bfly>
    3f2c:	90 91 1f 01 	lds	r25, 0x011F	; 0x80011f <bfly+0x1>
    3f30:	0e 94 48 12 	call	0x2490	; 0x2490 <fft_output_256>
    3f34:	5b cf       	rjmp	.-330    	; 0x3dec <PC_Mode+0x140>
    3f36:	e0 91 23 01 	lds	r30, 0x0123	; 0x800123 <spectrum>
    3f3a:	f0 91 24 01 	lds	r31, 0x0124	; 0x800124 <spectrum+0x1>
    3f3e:	23 2b       	or	r18, r19
    3f40:	11 f4       	brne	.+4      	; 0x3f46 <PC_Mode+0x29a>
    3f42:	11 82       	std	Z+1, r1	; 0x01
    3f44:	10 82       	st	Z, r1
    3f46:	80 91 1a 01 	lds	r24, 0x011A	; 0x80011a <i2>
    3f4a:	90 91 1b 01 	lds	r25, 0x011B	; 0x80011b <i2+0x1>
    3f4e:	81 30       	cpi	r24, 0x01	; 1
    3f50:	91 05       	cpc	r25, r1
    3f52:	11 f4       	brne	.+4      	; 0x3f58 <PC_Mode+0x2ac>
    3f54:	13 82       	std	Z+3, r1	; 0x03
    3f56:	12 82       	std	Z+2, r1	; 0x02
    3f58:	88 0f       	add	r24, r24
    3f5a:	99 1f       	adc	r25, r25
    3f5c:	e8 0f       	add	r30, r24
    3f5e:	f9 1f       	adc	r31, r25
    3f60:	60 e0       	ldi	r22, 0x00	; 0
    3f62:	80 81       	ld	r24, Z
    3f64:	0e 94 8e 23 	call	0x471c	; 0x471c <uart_putc>
    3f68:	80 91 1a 01 	lds	r24, 0x011A	; 0x80011a <i2>
    3f6c:	90 91 1b 01 	lds	r25, 0x011B	; 0x80011b <i2+0x1>
    3f70:	01 96       	adiw	r24, 0x01	; 1
    3f72:	90 93 1b 01 	sts	0x011B, r25	; 0x80011b <i2+0x1>
    3f76:	80 93 1a 01 	sts	0x011A, r24	; 0x80011a <i2>
    3f7a:	3c cf       	rjmp	.-392    	; 0x3df4 <PC_Mode+0x148>
    3f7c:	80 91 0e 01 	lds	r24, 0x010E	; 0x80010e <__data_end>
    3f80:	8c 3f       	cpi	r24, 0xFC	; 252
    3f82:	09 f0       	breq	.+2      	; 0x3f86 <PC_Mode+0x2da>
    3f84:	4b c0       	rjmp	.+150    	; 0x401c <PC_Mode+0x370>
    3f86:	60 e0       	ldi	r22, 0x00	; 0
    3f88:	80 91 22 01 	lds	r24, 0x0122	; 0x800122 <Mode>
    3f8c:	0e 94 8e 23 	call	0x471c	; 0x471c <uart_putc>
    3f90:	60 e0       	ldi	r22, 0x00	; 0
    3f92:	80 91 21 01 	lds	r24, 0x0121	; 0x800121 <Threshold>
    3f96:	0e 94 8e 23 	call	0x471c	; 0x471c <uart_putc>
    3f9a:	60 e0       	ldi	r22, 0x00	; 0
    3f9c:	80 91 13 01 	lds	r24, 0x0113	; 0x800113 <Samples>
    3fa0:	0e 94 8e 23 	call	0x471c	; 0x471c <uart_putc>
    3fa4:	60 e0       	ldi	r22, 0x00	; 0
    3fa6:	80 91 15 01 	lds	r24, 0x0115	; 0x800115 <ADC_Prescaler>
    3faa:	0e 94 8e 23 	call	0x471c	; 0x471c <uart_putc>
    3fae:	60 e0       	ldi	r22, 0x00	; 0
    3fb0:	80 91 0f 01 	lds	r24, 0x010F	; 0x80010f <IOB6>
    3fb4:	0e 94 8e 23 	call	0x471c	; 0x471c <uart_putc>
    3fb8:	60 e0       	ldi	r22, 0x00	; 0
    3fba:	80 91 2b 09 	lds	r24, 0x092B	; 0x80092b <IOB7>
    3fbe:	0e 94 8e 23 	call	0x471c	; 0x471c <uart_putc>
    3fc2:	60 e0       	ldi	r22, 0x00	; 0
    3fc4:	80 91 2e 09 	lds	r24, 0x092E	; 0x80092e <LED>
    3fc8:	0e 94 8e 23 	call	0x471c	; 0x471c <uart_putc>
    3fcc:	60 e0       	ldi	r22, 0x00	; 0
    3fce:	80 91 34 09 	lds	r24, 0x0934	; 0x800934 <UBRR_VAL>
    3fd2:	0e 94 8e 23 	call	0x471c	; 0x471c <uart_putc>
    3fd6:	60 e0       	ldi	r22, 0x00	; 0
    3fd8:	80 91 2a 09 	lds	r24, 0x092A	; 0x80092a <Speed_Filter>
    3fdc:	0e 94 8e 23 	call	0x471c	; 0x471c <uart_putc>
    3fe0:	60 e0       	ldi	r22, 0x00	; 0
    3fe2:	80 91 33 09 	lds	r24, 0x0933	; 0x800933 <Motion_Delay_Highbyte>
    3fe6:	0e 94 8e 23 	call	0x471c	; 0x471c <uart_putc>
    3fea:	60 e0       	ldi	r22, 0x00	; 0
    3fec:	80 91 29 09 	lds	r24, 0x0929	; 0x800929 <Motion_Delay_Lowbyte>
    3ff0:	0e 94 8e 23 	call	0x471c	; 0x471c <uart_putc>
    3ff4:	60 e0       	ldi	r22, 0x00	; 0
    3ff6:	80 91 1d 01 	lds	r24, 0x011D	; 0x80011d <Min_Speed_Highbyte>
    3ffa:	0e 94 8e 23 	call	0x471c	; 0x471c <uart_putc>
    3ffe:	60 e0       	ldi	r22, 0x00	; 0
    4000:	80 91 1c 01 	lds	r24, 0x011C	; 0x80011c <Min_Speed_Lowbyte>
    4004:	0e 94 8e 23 	call	0x471c	; 0x471c <uart_putc>
    4008:	60 e0       	ldi	r22, 0x00	; 0
    400a:	80 91 12 01 	lds	r24, 0x0112	; 0x800112 <Max_Speed_Highbyte>
    400e:	0e 94 8e 23 	call	0x471c	; 0x471c <uart_putc>
    4012:	60 e0       	ldi	r22, 0x00	; 0
    4014:	80 91 14 01 	lds	r24, 0x0114	; 0x800114 <Max_Speed_Lowbyte>
    4018:	0e 94 8e 23 	call	0x471c	; 0x471c <uart_putc>
    401c:	80 91 0e 01 	lds	r24, 0x010E	; 0x80010e <__data_end>
    4020:	8d 3f       	cpi	r24, 0xFD	; 253
    4022:	11 f4       	brne	.+4      	; 0x4028 <PC_Mode+0x37c>
    4024:	0e 94 55 1d 	call	0x3aaa	; 0x3aaa <Set_Config>
    4028:	80 91 0e 01 	lds	r24, 0x010E	; 0x80010e <__data_end>
    402c:	8f 3f       	cpi	r24, 0xFF	; 255
    402e:	09 f0       	breq	.+2      	; 0x4032 <PC_Mode+0x386>
    4030:	3f ce       	rjmp	.-898    	; 0x3cb0 <PC_Mode+0x4>
    4032:	df 91       	pop	r29
    4034:	cf 91       	pop	r28
    4036:	08 95       	ret

00004038 <delay_ms>:
    4038:	00 97       	sbiw	r24, 0x00	; 0
    403a:	41 f0       	breq	.+16     	; 0x404c <delay_ms+0x14>
    403c:	ef e9       	ldi	r30, 0x9F	; 159
    403e:	ff e0       	ldi	r31, 0x0F	; 15
    4040:	31 97       	sbiw	r30, 0x01	; 1
    4042:	f1 f7       	brne	.-4      	; 0x4040 <delay_ms+0x8>
    4044:	00 c0       	rjmp	.+0      	; 0x4046 <delay_ms+0xe>
    4046:	00 00       	nop
    4048:	01 97       	sbiw	r24, 0x01	; 1
    404a:	f6 cf       	rjmp	.-20     	; 0x4038 <delay_ms>
    404c:	08 95       	ret

0000404e <getKhmFaktor>:
    404e:	81 15       	cp	r24, r1
    4050:	24 e0       	ldi	r18, 0x04	; 4
    4052:	92 07       	cpc	r25, r18
    4054:	d1 f4       	brne	.+52     	; 0x408a <getKhmFaktor+0x3c>
    4056:	62 30       	cpi	r22, 0x02	; 2
    4058:	09 f4       	brne	.+2      	; 0x405c <getKhmFaktor+0xe>
    405a:	d8 c0       	rjmp	.+432    	; 0x420c <__stack+0x10d>
    405c:	64 30       	cpi	r22, 0x04	; 4
    405e:	09 f4       	brne	.+2      	; 0x4062 <getKhmFaktor+0x14>
    4060:	f8 c0       	rjmp	.+496    	; 0x4252 <__stack+0x153>
    4062:	68 30       	cpi	r22, 0x08	; 8
    4064:	09 f4       	brne	.+2      	; 0x4068 <getKhmFaktor+0x1a>
    4066:	d7 c0       	rjmp	.+430    	; 0x4216 <__stack+0x117>
    4068:	60 31       	cpi	r22, 0x10	; 16
    406a:	09 f4       	brne	.+2      	; 0x406e <getKhmFaktor+0x20>
    406c:	d9 c0       	rjmp	.+434    	; 0x4220 <__stack+0x121>
    406e:	60 32       	cpi	r22, 0x20	; 32
    4070:	09 f4       	brne	.+2      	; 0x4074 <getKhmFaktor+0x26>
    4072:	db c0       	rjmp	.+438    	; 0x422a <__stack+0x12b>
    4074:	60 34       	cpi	r22, 0x40	; 64
    4076:	09 f4       	brne	.+2      	; 0x407a <getKhmFaktor+0x2c>
    4078:	dd c0       	rjmp	.+442    	; 0x4234 <__stack+0x135>
    407a:	60 38       	cpi	r22, 0x80	; 128
    407c:	09 f0       	breq	.+2      	; 0x4080 <getKhmFaktor+0x32>
    407e:	4d c1       	rjmp	.+666    	; 0x431a <__stack+0x21b>
    4080:	8e ea       	ldi	r24, 0xAE	; 174
    4082:	97 e4       	ldi	r25, 0x47	; 71
    4084:	a1 ea       	ldi	r26, 0xA1	; 161
    4086:	b0 e4       	ldi	r27, 0x40	; 64
    4088:	4c c1       	rjmp	.+664    	; 0x4322 <__stack+0x223>
    408a:	81 15       	cp	r24, r1
    408c:	22 e0       	ldi	r18, 0x02	; 2
    408e:	92 07       	cpc	r25, r18
    4090:	d1 f4       	brne	.+52     	; 0x40c6 <getKhmFaktor+0x78>
    4092:	62 30       	cpi	r22, 0x02	; 2
    4094:	09 f4       	brne	.+2      	; 0x4098 <getKhmFaktor+0x4a>
    4096:	d3 c0       	rjmp	.+422    	; 0x423e <__stack+0x13f>
    4098:	64 30       	cpi	r22, 0x04	; 4
    409a:	09 f4       	brne	.+2      	; 0x409e <getKhmFaktor+0x50>
    409c:	f3 c0       	rjmp	.+486    	; 0x4284 <__stack+0x185>
    409e:	68 30       	cpi	r22, 0x08	; 8
    40a0:	09 f4       	brne	.+2      	; 0x40a4 <getKhmFaktor+0x56>
    40a2:	d2 c0       	rjmp	.+420    	; 0x4248 <__stack+0x149>
    40a4:	60 31       	cpi	r22, 0x10	; 16
    40a6:	09 f4       	brne	.+2      	; 0x40aa <getKhmFaktor+0x5c>
    40a8:	d4 c0       	rjmp	.+424    	; 0x4252 <__stack+0x153>
    40aa:	60 32       	cpi	r22, 0x20	; 32
    40ac:	09 f4       	brne	.+2      	; 0x40b0 <getKhmFaktor+0x62>
    40ae:	d6 c0       	rjmp	.+428    	; 0x425c <__stack+0x15d>
    40b0:	60 34       	cpi	r22, 0x40	; 64
    40b2:	09 f4       	brne	.+2      	; 0x40b6 <getKhmFaktor+0x68>
    40b4:	d8 c0       	rjmp	.+432    	; 0x4266 <__stack+0x167>
    40b6:	60 38       	cpi	r22, 0x80	; 128
    40b8:	09 f0       	breq	.+2      	; 0x40bc <getKhmFaktor+0x6e>
    40ba:	2f c1       	rjmp	.+606    	; 0x431a <__stack+0x21b>
    40bc:	8e ea       	ldi	r24, 0xAE	; 174
    40be:	97 e4       	ldi	r25, 0x47	; 71
    40c0:	a1 e2       	ldi	r26, 0x21	; 33
    40c2:	b0 e4       	ldi	r27, 0x40	; 64
    40c4:	2e c1       	rjmp	.+604    	; 0x4322 <__stack+0x223>
    40c6:	81 15       	cp	r24, r1
    40c8:	21 e0       	ldi	r18, 0x01	; 1
    40ca:	92 07       	cpc	r25, r18
    40cc:	d1 f4       	brne	.+52     	; 0x4102 <__stack+0x3>
    40ce:	62 30       	cpi	r22, 0x02	; 2
    40d0:	09 f4       	brne	.+2      	; 0x40d4 <getKhmFaktor+0x86>
    40d2:	0f c1       	rjmp	.+542    	; 0x42f2 <__stack+0x1f3>
    40d4:	64 30       	cpi	r22, 0x04	; 4
    40d6:	09 f4       	brne	.+2      	; 0x40da <getKhmFaktor+0x8c>
    40d8:	cb c0       	rjmp	.+406    	; 0x4270 <__stack+0x171>
    40da:	68 30       	cpi	r22, 0x08	; 8
    40dc:	09 f4       	brne	.+2      	; 0x40e0 <getKhmFaktor+0x92>
    40de:	cd c0       	rjmp	.+410    	; 0x427a <__stack+0x17b>
    40e0:	60 31       	cpi	r22, 0x10	; 16
    40e2:	09 f4       	brne	.+2      	; 0x40e6 <getKhmFaktor+0x98>
    40e4:	cf c0       	rjmp	.+414    	; 0x4284 <__stack+0x185>
    40e6:	60 32       	cpi	r22, 0x20	; 32
    40e8:	09 f4       	brne	.+2      	; 0x40ec <getKhmFaktor+0x9e>
    40ea:	d1 c0       	rjmp	.+418    	; 0x428e <__stack+0x18f>
    40ec:	60 34       	cpi	r22, 0x40	; 64
    40ee:	09 f4       	brne	.+2      	; 0x40f2 <getKhmFaktor+0xa4>
    40f0:	d3 c0       	rjmp	.+422    	; 0x4298 <__stack+0x199>
    40f2:	60 38       	cpi	r22, 0x80	; 128
    40f4:	09 f0       	breq	.+2      	; 0x40f8 <getKhmFaktor+0xaa>
    40f6:	11 c1       	rjmp	.+546    	; 0x431a <__stack+0x21b>
    40f8:	8e ea       	ldi	r24, 0xAE	; 174
    40fa:	97 e4       	ldi	r25, 0x47	; 71
    40fc:	a1 ea       	ldi	r26, 0xA1	; 161
    40fe:	bf e3       	ldi	r27, 0x3F	; 63
    4100:	10 c1       	rjmp	.+544    	; 0x4322 <__stack+0x223>
    4102:	80 38       	cpi	r24, 0x80	; 128
    4104:	91 05       	cpc	r25, r1
    4106:	d1 f4       	brne	.+52     	; 0x413c <__stack+0x3d>
    4108:	62 30       	cpi	r22, 0x02	; 2
    410a:	09 f4       	brne	.+2      	; 0x410e <__stack+0xf>
    410c:	f7 c0       	rjmp	.+494    	; 0x42fc <__stack+0x1fd>
    410e:	64 30       	cpi	r22, 0x04	; 4
    4110:	09 f4       	brne	.+2      	; 0x4114 <__stack+0x15>
    4112:	c7 c0       	rjmp	.+398    	; 0x42a2 <__stack+0x1a3>
    4114:	68 30       	cpi	r22, 0x08	; 8
    4116:	09 f4       	brne	.+2      	; 0x411a <__stack+0x1b>
    4118:	c9 c0       	rjmp	.+402    	; 0x42ac <__stack+0x1ad>
    411a:	60 31       	cpi	r22, 0x10	; 16
    411c:	09 f4       	brne	.+2      	; 0x4120 <__stack+0x21>
    411e:	cb c0       	rjmp	.+406    	; 0x42b6 <__stack+0x1b7>
    4120:	60 32       	cpi	r22, 0x20	; 32
    4122:	09 f4       	brne	.+2      	; 0x4126 <__stack+0x27>
    4124:	cd c0       	rjmp	.+410    	; 0x42c0 <__stack+0x1c1>
    4126:	60 34       	cpi	r22, 0x40	; 64
    4128:	09 f4       	brne	.+2      	; 0x412c <__stack+0x2d>
    412a:	cf c0       	rjmp	.+414    	; 0x42ca <__stack+0x1cb>
    412c:	60 38       	cpi	r22, 0x80	; 128
    412e:	09 f0       	breq	.+2      	; 0x4132 <__stack+0x33>
    4130:	f4 c0       	rjmp	.+488    	; 0x431a <__stack+0x21b>
    4132:	8e ea       	ldi	r24, 0xAE	; 174
    4134:	97 e4       	ldi	r25, 0x47	; 71
    4136:	a1 e2       	ldi	r26, 0x21	; 33
    4138:	bf e3       	ldi	r27, 0x3F	; 63
    413a:	f3 c0       	rjmp	.+486    	; 0x4322 <__stack+0x223>
    413c:	80 34       	cpi	r24, 0x40	; 64
    413e:	91 05       	cpc	r25, r1
    4140:	d1 f4       	brne	.+52     	; 0x4176 <__stack+0x77>
    4142:	62 30       	cpi	r22, 0x02	; 2
    4144:	09 f4       	brne	.+2      	; 0x4148 <__stack+0x49>
    4146:	e4 c0       	rjmp	.+456    	; 0x4310 <__stack+0x211>
    4148:	64 30       	cpi	r22, 0x04	; 4
    414a:	09 f4       	brne	.+2      	; 0x414e <__stack+0x4f>
    414c:	e1 c0       	rjmp	.+450    	; 0x4310 <__stack+0x211>
    414e:	68 30       	cpi	r22, 0x08	; 8
    4150:	09 f4       	brne	.+2      	; 0x4154 <__stack+0x55>
    4152:	d4 c0       	rjmp	.+424    	; 0x42fc <__stack+0x1fd>
    4154:	60 31       	cpi	r22, 0x10	; 16
    4156:	09 f4       	brne	.+2      	; 0x415a <__stack+0x5b>
    4158:	bd c0       	rjmp	.+378    	; 0x42d4 <__stack+0x1d5>
    415a:	60 32       	cpi	r22, 0x20	; 32
    415c:	09 f4       	brne	.+2      	; 0x4160 <__stack+0x61>
    415e:	bf c0       	rjmp	.+382    	; 0x42de <__stack+0x1df>
    4160:	60 34       	cpi	r22, 0x40	; 64
    4162:	09 f4       	brne	.+2      	; 0x4166 <__stack+0x67>
    4164:	c1 c0       	rjmp	.+386    	; 0x42e8 <__stack+0x1e9>
    4166:	60 38       	cpi	r22, 0x80	; 128
    4168:	09 f0       	breq	.+2      	; 0x416c <__stack+0x6d>
    416a:	d7 c0       	rjmp	.+430    	; 0x431a <__stack+0x21b>
    416c:	8a e0       	ldi	r24, 0x0A	; 10
    416e:	97 ed       	ldi	r25, 0xD7	; 215
    4170:	a3 ea       	ldi	r26, 0xA3	; 163
    4172:	be e3       	ldi	r27, 0x3E	; 62
    4174:	d6 c0       	rjmp	.+428    	; 0x4322 <__stack+0x223>
    4176:	80 32       	cpi	r24, 0x20	; 32
    4178:	91 05       	cpc	r25, r1
    417a:	b1 f4       	brne	.+44     	; 0x41a8 <__stack+0xa9>
    417c:	62 30       	cpi	r22, 0x02	; 2
    417e:	09 f4       	brne	.+2      	; 0x4182 <__stack+0x83>
    4180:	c2 c0       	rjmp	.+388    	; 0x4306 <__stack+0x207>
    4182:	64 30       	cpi	r22, 0x04	; 4
    4184:	09 f4       	brne	.+2      	; 0x4188 <__stack+0x89>
    4186:	c4 c0       	rjmp	.+392    	; 0x4310 <__stack+0x211>
    4188:	68 30       	cpi	r22, 0x08	; 8
    418a:	09 f4       	brne	.+2      	; 0x418e <__stack+0x8f>
    418c:	c1 c0       	rjmp	.+386    	; 0x4310 <__stack+0x211>
    418e:	60 31       	cpi	r22, 0x10	; 16
    4190:	09 f4       	brne	.+2      	; 0x4194 <__stack+0x95>
    4192:	be c0       	rjmp	.+380    	; 0x4310 <__stack+0x211>
    4194:	60 32       	cpi	r22, 0x20	; 32
    4196:	09 f4       	brne	.+2      	; 0x419a <__stack+0x9b>
    4198:	b1 c0       	rjmp	.+354    	; 0x42fc <__stack+0x1fd>
    419a:	60 34       	cpi	r22, 0x40	; 64
    419c:	09 f4       	brne	.+2      	; 0x41a0 <__stack+0xa1>
    419e:	a9 c0       	rjmp	.+338    	; 0x42f2 <__stack+0x1f3>
    41a0:	60 38       	cpi	r22, 0x80	; 128
    41a2:	09 f0       	breq	.+2      	; 0x41a6 <__stack+0xa7>
    41a4:	ba c0       	rjmp	.+372    	; 0x431a <__stack+0x21b>
    41a6:	69 c0       	rjmp	.+210    	; 0x427a <__stack+0x17b>
    41a8:	80 31       	cpi	r24, 0x10	; 16
    41aa:	91 05       	cpc	r25, r1
    41ac:	b1 f4       	brne	.+44     	; 0x41da <__stack+0xdb>
    41ae:	62 30       	cpi	r22, 0x02	; 2
    41b0:	09 f4       	brne	.+2      	; 0x41b4 <__stack+0xb5>
    41b2:	a9 c0       	rjmp	.+338    	; 0x4306 <__stack+0x207>
    41b4:	64 30       	cpi	r22, 0x04	; 4
    41b6:	09 f4       	brne	.+2      	; 0x41ba <__stack+0xbb>
    41b8:	a6 c0       	rjmp	.+332    	; 0x4306 <__stack+0x207>
    41ba:	68 30       	cpi	r22, 0x08	; 8
    41bc:	09 f4       	brne	.+2      	; 0x41c0 <__stack+0xc1>
    41be:	a3 c0       	rjmp	.+326    	; 0x4306 <__stack+0x207>
    41c0:	60 31       	cpi	r22, 0x10	; 16
    41c2:	09 f4       	brne	.+2      	; 0x41c6 <__stack+0xc7>
    41c4:	a0 c0       	rjmp	.+320    	; 0x4306 <__stack+0x207>
    41c6:	60 32       	cpi	r22, 0x20	; 32
    41c8:	09 f4       	brne	.+2      	; 0x41cc <__stack+0xcd>
    41ca:	a2 c0       	rjmp	.+324    	; 0x4310 <__stack+0x211>
    41cc:	60 34       	cpi	r22, 0x40	; 64
    41ce:	09 f4       	brne	.+2      	; 0x41d2 <__stack+0xd3>
    41d0:	95 c0       	rjmp	.+298    	; 0x42fc <__stack+0x1fd>
    41d2:	60 38       	cpi	r22, 0x80	; 128
    41d4:	09 f0       	breq	.+2      	; 0x41d8 <__stack+0xd9>
    41d6:	a1 c0       	rjmp	.+322    	; 0x431a <__stack+0x21b>
    41d8:	69 c0       	rjmp	.+210    	; 0x42ac <__stack+0x1ad>
    41da:	08 97       	sbiw	r24, 0x08	; 8
    41dc:	09 f0       	breq	.+2      	; 0x41e0 <__stack+0xe1>
    41de:	9d c0       	rjmp	.+314    	; 0x431a <__stack+0x21b>
    41e0:	62 30       	cpi	r22, 0x02	; 2
    41e2:	09 f4       	brne	.+2      	; 0x41e6 <__stack+0xe7>
    41e4:	90 c0       	rjmp	.+288    	; 0x4306 <__stack+0x207>
    41e6:	64 30       	cpi	r22, 0x04	; 4
    41e8:	09 f4       	brne	.+2      	; 0x41ec <__stack+0xed>
    41ea:	8d c0       	rjmp	.+282    	; 0x4306 <__stack+0x207>
    41ec:	68 30       	cpi	r22, 0x08	; 8
    41ee:	09 f4       	brne	.+2      	; 0x41f2 <__stack+0xf3>
    41f0:	8a c0       	rjmp	.+276    	; 0x4306 <__stack+0x207>
    41f2:	60 31       	cpi	r22, 0x10	; 16
    41f4:	09 f4       	brne	.+2      	; 0x41f8 <__stack+0xf9>
    41f6:	87 c0       	rjmp	.+270    	; 0x4306 <__stack+0x207>
    41f8:	60 32       	cpi	r22, 0x20	; 32
    41fa:	09 f4       	brne	.+2      	; 0x41fe <__stack+0xff>
    41fc:	84 c0       	rjmp	.+264    	; 0x4306 <__stack+0x207>
    41fe:	60 34       	cpi	r22, 0x40	; 64
    4200:	09 f4       	brne	.+2      	; 0x4204 <__stack+0x105>
    4202:	86 c0       	rjmp	.+268    	; 0x4310 <__stack+0x211>
    4204:	60 38       	cpi	r22, 0x80	; 128
    4206:	09 f0       	breq	.+2      	; 0x420a <__stack+0x10b>
    4208:	88 c0       	rjmp	.+272    	; 0x431a <__stack+0x21b>
    420a:	78 c0       	rjmp	.+240    	; 0x42fc <__stack+0x1fd>
    420c:	8c e5       	ldi	r24, 0x5C	; 92
    420e:	9f e8       	ldi	r25, 0x8F	; 143
    4210:	a2 ec       	ldi	r26, 0xC2	; 194
    4212:	be e3       	ldi	r27, 0x3E	; 62
    4214:	86 c0       	rjmp	.+268    	; 0x4322 <__stack+0x223>
    4216:	86 ef       	ldi	r24, 0xF6	; 246
    4218:	98 e2       	ldi	r25, 0x28	; 40
    421a:	ac e1       	ldi	r26, 0x1C	; 28
    421c:	bf e3       	ldi	r27, 0x3F	; 63
    421e:	81 c0       	rjmp	.+258    	; 0x4322 <__stack+0x223>
    4220:	86 e6       	ldi	r24, 0x66	; 102
    4222:	96 e6       	ldi	r25, 0x66	; 102
    4224:	a6 e6       	ldi	r26, 0x66	; 102
    4226:	bf e3       	ldi	r27, 0x3F	; 63
    4228:	7c c0       	rjmp	.+248    	; 0x4322 <__stack+0x223>
    422a:	8a e0       	ldi	r24, 0x0A	; 10
    422c:	97 ed       	ldi	r25, 0xD7	; 215
    422e:	a3 ec       	ldi	r26, 0xC3	; 195
    4230:	bf e3       	ldi	r27, 0x3F	; 63
    4232:	77 c0       	rjmp	.+238    	; 0x4322 <__stack+0x223>
    4234:	84 ea       	ldi	r24, 0xA4	; 164
    4236:	90 e7       	ldi	r25, 0x70	; 112
    4238:	ad e2       	ldi	r26, 0x2D	; 45
    423a:	b0 e4       	ldi	r27, 0x40	; 64
    423c:	72 c0       	rjmp	.+228    	; 0x4322 <__stack+0x223>
    423e:	8d e3       	ldi	r24, 0x3D	; 61
    4240:	9a e0       	ldi	r25, 0x0A	; 10
    4242:	a7 e5       	ldi	r26, 0x57	; 87
    4244:	be e3       	ldi	r27, 0x3E	; 62
    4246:	6d c0       	rjmp	.+218    	; 0x4322 <__stack+0x223>
    4248:	82 e5       	ldi	r24, 0x52	; 82
    424a:	98 eb       	ldi	r25, 0xB8	; 184
    424c:	ae e9       	ldi	r26, 0x9E	; 158
    424e:	be e3       	ldi	r27, 0x3E	; 62
    4250:	68 c0       	rjmp	.+208    	; 0x4322 <__stack+0x223>
    4252:	8f e1       	ldi	r24, 0x1F	; 31
    4254:	95 e8       	ldi	r25, 0x85	; 133
    4256:	ab ee       	ldi	r26, 0xEB	; 235
    4258:	be e3       	ldi	r27, 0x3E	; 62
    425a:	63 c0       	rjmp	.+198    	; 0x4322 <__stack+0x223>
    425c:	8c e5       	ldi	r24, 0x5C	; 92
    425e:	9f e8       	ldi	r25, 0x8F	; 143
    4260:	a2 e4       	ldi	r26, 0x42	; 66
    4262:	bf e3       	ldi	r27, 0x3F	; 63
    4264:	5e c0       	rjmp	.+188    	; 0x4322 <__stack+0x223>
    4266:	8d ec       	ldi	r24, 0xCD	; 205
    4268:	9c ec       	ldi	r25, 0xCC	; 204
    426a:	ac ea       	ldi	r26, 0xAC	; 172
    426c:	bf e3       	ldi	r27, 0x3F	; 63
    426e:	59 c0       	rjmp	.+178    	; 0x4322 <__stack+0x223>
    4270:	89 e2       	ldi	r24, 0x29	; 41
    4272:	9c e5       	ldi	r25, 0x5C	; 92
    4274:	af e0       	ldi	r26, 0x0F	; 15
    4276:	be e3       	ldi	r27, 0x3E	; 62
    4278:	54 c0       	rjmp	.+168    	; 0x4322 <__stack+0x223>
    427a:	8b e7       	ldi	r24, 0x7B	; 123
    427c:	94 e1       	ldi	r25, 0x14	; 20
    427e:	ae e2       	ldi	r26, 0x2E	; 46
    4280:	be e3       	ldi	r27, 0x3E	; 62
    4282:	4f c0       	rjmp	.+158    	; 0x4322 <__stack+0x223>
    4284:	8f e8       	ldi	r24, 0x8F	; 143
    4286:	92 ec       	ldi	r25, 0xC2	; 194
    4288:	a5 e7       	ldi	r26, 0x75	; 117
    428a:	be e3       	ldi	r27, 0x3E	; 62
    428c:	4a c0       	rjmp	.+148    	; 0x4322 <__stack+0x223>
    428e:	84 e1       	ldi	r24, 0x14	; 20
    4290:	9e ea       	ldi	r25, 0xAE	; 174
    4292:	a7 ec       	ldi	r26, 0xC7	; 199
    4294:	be e3       	ldi	r27, 0x3E	; 62
    4296:	45 c0       	rjmp	.+138    	; 0x4322 <__stack+0x223>
    4298:	8b e7       	ldi	r24, 0x7B	; 123
    429a:	94 e1       	ldi	r25, 0x14	; 20
    429c:	ae e2       	ldi	r26, 0x2E	; 46
    429e:	bf e3       	ldi	r27, 0x3F	; 63
    42a0:	40 c0       	rjmp	.+128    	; 0x4322 <__stack+0x223>
    42a2:	8a e0       	ldi	r24, 0x0A	; 10
    42a4:	97 ed       	ldi	r25, 0xD7	; 215
    42a6:	a3 ea       	ldi	r26, 0xA3	; 163
    42a8:	bd e3       	ldi	r27, 0x3D	; 61
    42aa:	3b c0       	rjmp	.+118    	; 0x4322 <__stack+0x223>
    42ac:	8d ec       	ldi	r24, 0xCD	; 205
    42ae:	9c ec       	ldi	r25, 0xCC	; 204
    42b0:	ac ec       	ldi	r26, 0xCC	; 204
    42b2:	bd e3       	ldi	r27, 0x3D	; 61
    42b4:	36 c0       	rjmp	.+108    	; 0x4322 <__stack+0x223>
    42b6:	88 eb       	ldi	r24, 0xB8	; 184
    42b8:	9e e1       	ldi	r25, 0x1E	; 30
    42ba:	a5 e0       	ldi	r26, 0x05	; 5
    42bc:	be e3       	ldi	r27, 0x3E	; 62
    42be:	31 c0       	rjmp	.+98     	; 0x4322 <__stack+0x223>
    42c0:	8d ec       	ldi	r24, 0xCD	; 205
    42c2:	9c ec       	ldi	r25, 0xCC	; 204
    42c4:	ac e4       	ldi	r26, 0x4C	; 76
    42c6:	be e3       	ldi	r27, 0x3E	; 62
    42c8:	2c c0       	rjmp	.+88     	; 0x4322 <__stack+0x223>
    42ca:	8b e7       	ldi	r24, 0x7B	; 123
    42cc:	94 e1       	ldi	r25, 0x14	; 20
    42ce:	ae ea       	ldi	r26, 0xAE	; 174
    42d0:	be e3       	ldi	r27, 0x3E	; 62
    42d2:	27 c0       	rjmp	.+78     	; 0x4322 <__stack+0x223>
    42d4:	8d ec       	ldi	r24, 0xCD	; 205
    42d6:	9c ec       	ldi	r25, 0xCC	; 204
    42d8:	ac e4       	ldi	r26, 0x4C	; 76
    42da:	bf e3       	ldi	r27, 0x3F	; 63
    42dc:	22 c0       	rjmp	.+68     	; 0x4322 <__stack+0x223>
    42de:	8f e8       	ldi	r24, 0x8F	; 143
    42e0:	92 ec       	ldi	r25, 0xC2	; 194
    42e2:	a5 ef       	ldi	r26, 0xF5	; 245
    42e4:	bd e3       	ldi	r27, 0x3D	; 61
    42e6:	1d c0       	rjmp	.+58     	; 0x4322 <__stack+0x223>
    42e8:	8c ee       	ldi	r24, 0xEC	; 236
    42ea:	91 e5       	ldi	r25, 0x51	; 81
    42ec:	a8 e3       	ldi	r26, 0x38	; 56
    42ee:	be e3       	ldi	r27, 0x3E	; 62
    42f0:	18 c0       	rjmp	.+48     	; 0x4322 <__stack+0x223>
    42f2:	8e ea       	ldi	r24, 0xAE	; 174
    42f4:	97 e4       	ldi	r25, 0x47	; 71
    42f6:	a1 ee       	ldi	r26, 0xE1	; 225
    42f8:	bd e3       	ldi	r27, 0x3D	; 61
    42fa:	13 c0       	rjmp	.+38     	; 0x4322 <__stack+0x223>
    42fc:	89 e2       	ldi	r24, 0x29	; 41
    42fe:	9c e5       	ldi	r25, 0x5C	; 92
    4300:	af e8       	ldi	r26, 0x8F	; 143
    4302:	bd e3       	ldi	r27, 0x3D	; 61
    4304:	0e c0       	rjmp	.+28     	; 0x4322 <__stack+0x223>
    4306:	8d ec       	ldi	r24, 0xCD	; 205
    4308:	9c ec       	ldi	r25, 0xCC	; 204
    430a:	ac e4       	ldi	r26, 0x4C	; 76
    430c:	bd e3       	ldi	r27, 0x3D	; 61
    430e:	09 c0       	rjmp	.+18     	; 0x4322 <__stack+0x223>
    4310:	8f e8       	ldi	r24, 0x8F	; 143
    4312:	92 ec       	ldi	r25, 0xC2	; 194
    4314:	a5 e7       	ldi	r26, 0x75	; 117
    4316:	bd e3       	ldi	r27, 0x3D	; 61
    4318:	04 c0       	rjmp	.+8      	; 0x4322 <__stack+0x223>
    431a:	80 e0       	ldi	r24, 0x00	; 0
    431c:	90 e0       	ldi	r25, 0x00	; 0
    431e:	a0 e8       	ldi	r26, 0x80	; 128
    4320:	bf e3       	ldi	r27, 0x3F	; 63
    4322:	bc 01       	movw	r22, r24
    4324:	cd 01       	movw	r24, r26
    4326:	08 95       	ret

00004328 <main>:
    4328:	10 92 1f 01 	sts	0x011F, r1	; 0x80011f <bfly+0x1>
    432c:	10 92 1e 01 	sts	0x011E, r1	; 0x80011e <bfly>
    4330:	10 92 24 01 	sts	0x0124, r1	; 0x800124 <spectrum+0x1>
    4334:	10 92 23 01 	sts	0x0123, r1	; 0x800123 <spectrum>
    4338:	10 92 28 09 	sts	0x0928, r1	; 0x800928 <velocity>
    433c:	10 92 2d 09 	sts	0x092D, r1	; 0x80092d <Max_X+0x1>
    4340:	10 92 2c 09 	sts	0x092C, r1	; 0x80092c <Max_X>
    4344:	10 92 11 01 	sts	0x0111, r1	; 0x800111 <Max_Y+0x1>
    4348:	10 92 10 01 	sts	0x0110, r1	; 0x800110 <Max_Y>
    434c:	0e 94 ef 1b 	call	0x37de	; 0x37de <Read_Config>
    4350:	80 91 15 01 	lds	r24, 0x0115	; 0x800115 <ADC_Prescaler>
    4354:	0e 94 ab 1b 	call	0x3756	; 0x3756 <ADC_Init>
    4358:	60 91 34 09 	lds	r22, 0x0934	; 0x800934 <UBRR_VAL>
    435c:	70 91 35 09 	lds	r23, 0x0935	; 0x800935 <UBRR_VAL+0x1>
    4360:	80 91 36 09 	lds	r24, 0x0936	; 0x800936 <UBRR_VAL+0x2>
    4364:	90 91 37 09 	lds	r25, 0x0937	; 0x800937 <UBRR_VAL+0x3>
    4368:	40 e0       	ldi	r20, 0x00	; 0
    436a:	0e 94 56 23 	call	0x46ac	; 0x46ac <uart_init>
    436e:	41 e0       	ldi	r20, 0x01	; 1
    4370:	67 e6       	ldi	r22, 0x67	; 103
    4372:	70 e0       	ldi	r23, 0x00	; 0
    4374:	80 e0       	ldi	r24, 0x00	; 0
    4376:	90 e0       	ldi	r25, 0x00	; 0
    4378:	0e 94 56 23 	call	0x46ac	; 0x46ac <uart_init>
    437c:	80 e1       	ldi	r24, 0x10	; 16
    437e:	81 b9       	out	0x01, r24	; 1
    4380:	80 ec       	ldi	r24, 0xC0	; 192
    4382:	84 b9       	out	0x04, r24	; 4
    4384:	14 98       	cbi	0x02, 4	; 2
    4386:	2e 98       	cbi	0x05, 6	; 5
    4388:	2f 9a       	sbi	0x05, 7	; 5
    438a:	60 91 15 01 	lds	r22, 0x0115	; 0x800115 <ADC_Prescaler>
    438e:	80 91 18 01 	lds	r24, 0x0118	; 0x800118 <SampleCount>
    4392:	90 91 19 01 	lds	r25, 0x0119	; 0x800119 <SampleCount+0x1>
    4396:	0e 94 27 20 	call	0x404e	; 0x404e <getKhmFaktor>
    439a:	60 93 2f 09 	sts	0x092F, r22	; 0x80092f <kmhfaktor>
    439e:	70 93 30 09 	sts	0x0930, r23	; 0x800930 <kmhfaktor+0x1>
    43a2:	80 93 31 09 	sts	0x0931, r24	; 0x800931 <kmhfaktor+0x2>
    43a6:	90 93 32 09 	sts	0x0932, r25	; 0x800932 <kmhfaktor+0x3>
    43aa:	c2 e0       	ldi	r28, 0x02	; 2
    43ac:	d0 e0       	ldi	r29, 0x00	; 0
    43ae:	80 e0       	ldi	r24, 0x00	; 0
    43b0:	0e 94 b0 23 	call	0x4760	; 0x4760 <uart_getc>
    43b4:	80 93 0e 01 	sts	0x010E, r24	; 0x80010e <__data_end>
    43b8:	80 91 22 01 	lds	r24, 0x0122	; 0x800122 <Mode>
    43bc:	81 30       	cpi	r24, 0x01	; 1
    43be:	49 f5       	brne	.+82     	; 0x4412 <main+0xea>
    43c0:	80 e0       	ldi	r24, 0x00	; 0
    43c2:	0e 94 da 1b 	call	0x37b4	; 0x37b4 <ADC_Read>
    43c6:	96 95       	lsr	r25
    43c8:	87 95       	ror	r24
    43ca:	96 95       	lsr	r25
    43cc:	87 95       	ror	r24
    43ce:	90 93 39 09 	sts	0x0939, r25	; 0x800939 <adcval+0x1>
    43d2:	80 93 38 09 	sts	0x0938, r24	; 0x800938 <adcval>
    43d6:	20 91 21 01 	lds	r18, 0x0121	; 0x800121 <Threshold>
    43da:	30 e0       	ldi	r19, 0x00	; 0
    43dc:	28 17       	cp	r18, r24
    43de:	39 07       	cpc	r19, r25
    43e0:	c4 f4       	brge	.+48     	; 0x4412 <main+0xea>
    43e2:	80 91 2e 09 	lds	r24, 0x092E	; 0x80092e <LED>
    43e6:	81 30       	cpi	r24, 0x01	; 1
    43e8:	09 f4       	brne	.+2      	; 0x43ec <main+0xc4>
    43ea:	14 9a       	sbi	0x02, 4	; 2
    43ec:	80 91 0f 01 	lds	r24, 0x010F	; 0x80010f <IOB6>
    43f0:	81 30       	cpi	r24, 0x01	; 1
    43f2:	09 f4       	brne	.+2      	; 0x43f6 <main+0xce>
    43f4:	2e 9a       	sbi	0x05, 6	; 5
    43f6:	80 91 2b 09 	lds	r24, 0x092B	; 0x80092b <IOB7>
    43fa:	81 30       	cpi	r24, 0x01	; 1
    43fc:	09 f4       	brne	.+2      	; 0x4400 <main+0xd8>
    43fe:	2f 98       	cbi	0x05, 7	; 5
    4400:	80 91 16 01 	lds	r24, 0x0116	; 0x800116 <Motion_Delay>
    4404:	90 91 17 01 	lds	r25, 0x0117	; 0x800117 <Motion_Delay+0x1>
    4408:	0e 94 1c 20 	call	0x4038	; 0x4038 <delay_ms>
    440c:	14 98       	cbi	0x02, 4	; 2
    440e:	2e 98       	cbi	0x05, 6	; 5
    4410:	2f 9a       	sbi	0x05, 7	; 5
    4412:	80 91 22 01 	lds	r24, 0x0122	; 0x800122 <Mode>
    4416:	82 30       	cpi	r24, 0x02	; 2
    4418:	09 f0       	breq	.+2      	; 0x441c <main+0xf4>
    441a:	2b c1       	rjmp	.+598    	; 0x4672 <main+0x34a>
    441c:	10 92 26 01 	sts	0x0126, r1	; 0x800126 <i+0x1>
    4420:	10 92 25 01 	sts	0x0125, r1	; 0x800125 <i>
    4424:	80 91 18 01 	lds	r24, 0x0118	; 0x800118 <SampleCount>
    4428:	90 91 19 01 	lds	r25, 0x0119	; 0x800119 <SampleCount+0x1>
    442c:	20 91 25 01 	lds	r18, 0x0125	; 0x800125 <i>
    4430:	30 91 26 01 	lds	r19, 0x0126	; 0x800126 <i+0x1>
    4434:	28 17       	cp	r18, r24
    4436:	39 07       	cpc	r19, r25
    4438:	c8 f4       	brcc	.+50     	; 0x446c <main+0x144>
    443a:	80 e0       	ldi	r24, 0x00	; 0
    443c:	0e 94 da 1b 	call	0x37b4	; 0x37b4 <ADC_Read>
    4440:	90 93 39 09 	sts	0x0939, r25	; 0x800939 <adcval+0x1>
    4444:	80 93 38 09 	sts	0x0938, r24	; 0x800938 <adcval>
    4448:	20 91 25 01 	lds	r18, 0x0125	; 0x800125 <i>
    444c:	30 91 26 01 	lds	r19, 0x0126	; 0x800126 <i+0x1>
    4450:	f9 01       	movw	r30, r18
    4452:	ee 0f       	add	r30, r30
    4454:	ff 1f       	adc	r31, r31
    4456:	e8 5d       	subi	r30, 0xD8	; 216
    4458:	fe 4f       	sbci	r31, 0xFE	; 254
    445a:	91 83       	std	Z+1, r25	; 0x01
    445c:	80 83       	st	Z, r24
    445e:	2f 5f       	subi	r18, 0xFF	; 255
    4460:	3f 4f       	sbci	r19, 0xFF	; 255
    4462:	30 93 26 01 	sts	0x0126, r19	; 0x800126 <i+0x1>
    4466:	20 93 25 01 	sts	0x0125, r18	; 0x800125 <i>
    446a:	dc cf       	rjmp	.-72     	; 0x4424 <main+0xfc>
    446c:	60 91 1e 01 	lds	r22, 0x011E	; 0x80011e <bfly>
    4470:	70 91 1f 01 	lds	r23, 0x011F	; 0x80011f <bfly+0x1>
    4474:	81 15       	cp	r24, r1
    4476:	21 e0       	ldi	r18, 0x01	; 1
    4478:	92 07       	cpc	r25, r18
    447a:	09 f4       	brne	.+2      	; 0x447e <main+0x156>
    447c:	64 c0       	rjmp	.+200    	; 0x4546 <main+0x21e>
    447e:	e0 f4       	brcc	.+56     	; 0x44b8 <main+0x190>
    4480:	80 34       	cpi	r24, 0x40	; 64
    4482:	91 05       	cpc	r25, r1
    4484:	b1 f1       	breq	.+108    	; 0x44f2 <main+0x1ca>
    4486:	80 38       	cpi	r24, 0x80	; 128
    4488:	91 05       	cpc	r25, r1
    448a:	09 f0       	breq	.+2      	; 0x448e <main+0x166>
    448c:	5c c0       	rjmp	.+184    	; 0x4546 <main+0x21e>
    448e:	88 e2       	ldi	r24, 0x28	; 40
    4490:	91 e0       	ldi	r25, 0x01	; 1
    4492:	0e 94 3b 0d 	call	0x1a76	; 0x1a76 <fft_input_128>
    4496:	80 91 1e 01 	lds	r24, 0x011E	; 0x80011e <bfly>
    449a:	90 91 1f 01 	lds	r25, 0x011F	; 0x80011f <bfly+0x1>
    449e:	0e 94 6a 0d 	call	0x1ad4	; 0x1ad4 <fft_execute_128>
    44a2:	60 91 23 01 	lds	r22, 0x0123	; 0x800123 <spectrum>
    44a6:	70 91 24 01 	lds	r23, 0x0124	; 0x800124 <spectrum+0x1>
    44aa:	80 91 1e 01 	lds	r24, 0x011E	; 0x80011e <bfly>
    44ae:	90 91 1f 01 	lds	r25, 0x011F	; 0x80011f <bfly+0x1>
    44b2:	0e 94 34 0e 	call	0x1c68	; 0x1c68 <fft_output_128>
    44b6:	5b c0       	rjmp	.+182    	; 0x456e <main+0x246>
    44b8:	81 15       	cp	r24, r1
    44ba:	22 e0       	ldi	r18, 0x02	; 2
    44bc:	92 07       	cpc	r25, r18
    44be:	71 f1       	breq	.+92     	; 0x451c <main+0x1f4>
    44c0:	81 15       	cp	r24, r1
    44c2:	94 40       	sbci	r25, 0x04	; 4
    44c4:	09 f0       	breq	.+2      	; 0x44c8 <main+0x1a0>
    44c6:	3f c0       	rjmp	.+126    	; 0x4546 <main+0x21e>
    44c8:	88 e2       	ldi	r24, 0x28	; 40
    44ca:	91 e0       	ldi	r25, 0x01	; 1
    44cc:	0e 94 67 0a 	call	0x14ce	; 0x14ce <fft_input_1024>
    44d0:	80 91 1e 01 	lds	r24, 0x011E	; 0x80011e <bfly>
    44d4:	90 91 1f 01 	lds	r25, 0x011F	; 0x80011f <bfly+0x1>
    44d8:	0e 94 96 0a 	call	0x152c	; 0x152c <fft_execute_1024>
    44dc:	60 91 23 01 	lds	r22, 0x0123	; 0x800123 <spectrum>
    44e0:	70 91 24 01 	lds	r23, 0x0124	; 0x800124 <spectrum+0x1>
    44e4:	80 91 1e 01 	lds	r24, 0x011E	; 0x80011e <bfly>
    44e8:	90 91 1f 01 	lds	r25, 0x011F	; 0x80011f <bfly+0x1>
    44ec:	0e 94 60 0b 	call	0x16c0	; 0x16c0 <fft_output_1024>
    44f0:	3e c0       	rjmp	.+124    	; 0x456e <main+0x246>
    44f2:	88 e2       	ldi	r24, 0x28	; 40
    44f4:	91 e0       	ldi	r25, 0x01	; 1
    44f6:	0e 94 17 1a 	call	0x342e	; 0x342e <fft_input_64>
    44fa:	80 91 1e 01 	lds	r24, 0x011E	; 0x80011e <bfly>
    44fe:	90 91 1f 01 	lds	r25, 0x011F	; 0x80011f <bfly+0x1>
    4502:	0e 94 46 1a 	call	0x348c	; 0x348c <fft_execute_64>
    4506:	60 91 23 01 	lds	r22, 0x0123	; 0x800123 <spectrum>
    450a:	70 91 24 01 	lds	r23, 0x0124	; 0x800124 <spectrum+0x1>
    450e:	80 91 1e 01 	lds	r24, 0x011E	; 0x80011e <bfly>
    4512:	90 91 1f 01 	lds	r25, 0x011F	; 0x80011f <bfly+0x1>
    4516:	0e 94 10 1b 	call	0x3620	; 0x3620 <fft_output_64>
    451a:	29 c0       	rjmp	.+82     	; 0x456e <main+0x246>
    451c:	88 e2       	ldi	r24, 0x28	; 40
    451e:	91 e0       	ldi	r25, 0x01	; 1
    4520:	0e 94 e3 17 	call	0x2fc6	; 0x2fc6 <fft_input_512>
    4524:	80 91 1e 01 	lds	r24, 0x011E	; 0x80011e <bfly>
    4528:	90 91 1f 01 	lds	r25, 0x011F	; 0x80011f <bfly+0x1>
    452c:	0e 94 12 18 	call	0x3024	; 0x3024 <fft_execute_512>
    4530:	60 91 23 01 	lds	r22, 0x0123	; 0x800123 <spectrum>
    4534:	70 91 24 01 	lds	r23, 0x0124	; 0x800124 <spectrum+0x1>
    4538:	80 91 1e 01 	lds	r24, 0x011E	; 0x80011e <bfly>
    453c:	90 91 1f 01 	lds	r25, 0x011F	; 0x80011f <bfly+0x1>
    4540:	0e 94 dc 18 	call	0x31b8	; 0x31b8 <fft_output_512>
    4544:	14 c0       	rjmp	.+40     	; 0x456e <main+0x246>
    4546:	88 e2       	ldi	r24, 0x28	; 40
    4548:	91 e0       	ldi	r25, 0x01	; 1
    454a:	0e 94 4f 11 	call	0x229e	; 0x229e <fft_input_256>
    454e:	80 91 1e 01 	lds	r24, 0x011E	; 0x80011e <bfly>
    4552:	90 91 1f 01 	lds	r25, 0x011F	; 0x80011f <bfly+0x1>
    4556:	0e 94 7e 11 	call	0x22fc	; 0x22fc <fft_execute_256>
    455a:	60 91 23 01 	lds	r22, 0x0123	; 0x800123 <spectrum>
    455e:	70 91 24 01 	lds	r23, 0x0124	; 0x800124 <spectrum+0x1>
    4562:	80 91 1e 01 	lds	r24, 0x011E	; 0x80011e <bfly>
    4566:	90 91 1f 01 	lds	r25, 0x011F	; 0x80011f <bfly+0x1>
    456a:	0e 94 48 12 	call	0x2490	; 0x2490 <fft_output_256>
    456e:	10 92 2d 09 	sts	0x092D, r1	; 0x80092d <Max_X+0x1>
    4572:	10 92 2c 09 	sts	0x092C, r1	; 0x80092c <Max_X>
    4576:	10 92 11 01 	sts	0x0111, r1	; 0x800111 <Max_Y+0x1>
    457a:	10 92 10 01 	sts	0x0110, r1	; 0x800110 <Max_Y>
    457e:	d0 93 26 01 	sts	0x0126, r29	; 0x800126 <i+0x1>
    4582:	c0 93 25 01 	sts	0x0125, r28	; 0x800125 <i>
    4586:	20 91 18 01 	lds	r18, 0x0118	; 0x800118 <SampleCount>
    458a:	30 91 19 01 	lds	r19, 0x0119	; 0x800119 <SampleCount+0x1>
    458e:	36 95       	lsr	r19
    4590:	27 95       	ror	r18
    4592:	a0 91 23 01 	lds	r26, 0x0123	; 0x800123 <spectrum>
    4596:	b0 91 24 01 	lds	r27, 0x0124	; 0x800124 <spectrum+0x1>
    459a:	80 91 25 01 	lds	r24, 0x0125	; 0x800125 <i>
    459e:	90 91 26 01 	lds	r25, 0x0126	; 0x800126 <i+0x1>
    45a2:	40 91 10 01 	lds	r20, 0x0110	; 0x800110 <Max_Y>
    45a6:	50 91 11 01 	lds	r21, 0x0111	; 0x800111 <Max_Y+0x1>
    45aa:	82 17       	cp	r24, r18
    45ac:	93 07       	cpc	r25, r19
    45ae:	c0 f4       	brcc	.+48     	; 0x45e0 <main+0x2b8>
    45b0:	fc 01       	movw	r30, r24
    45b2:	ee 0f       	add	r30, r30
    45b4:	ff 1f       	adc	r31, r31
    45b6:	ea 0f       	add	r30, r26
    45b8:	fb 1f       	adc	r31, r27
    45ba:	60 81       	ld	r22, Z
    45bc:	71 81       	ldd	r23, Z+1	; 0x01
    45be:	46 17       	cp	r20, r22
    45c0:	57 07       	cpc	r21, r23
    45c2:	40 f4       	brcc	.+16     	; 0x45d4 <main+0x2ac>
    45c4:	70 93 11 01 	sts	0x0111, r23	; 0x800111 <Max_Y+0x1>
    45c8:	60 93 10 01 	sts	0x0110, r22	; 0x800110 <Max_Y>
    45cc:	90 93 2d 09 	sts	0x092D, r25	; 0x80092d <Max_X+0x1>
    45d0:	80 93 2c 09 	sts	0x092C, r24	; 0x80092c <Max_X>
    45d4:	01 96       	adiw	r24, 0x01	; 1
    45d6:	90 93 26 01 	sts	0x0126, r25	; 0x800126 <i+0x1>
    45da:	80 93 25 01 	sts	0x0125, r24	; 0x800125 <i>
    45de:	dd cf       	rjmp	.-70     	; 0x459a <main+0x272>
    45e0:	80 91 21 01 	lds	r24, 0x0121	; 0x800121 <Threshold>
    45e4:	90 e0       	ldi	r25, 0x00	; 0
    45e6:	84 17       	cp	r24, r20
    45e8:	95 07       	cpc	r25, r21
    45ea:	08 f0       	brcs	.+2      	; 0x45ee <main+0x2c6>
    45ec:	42 c0       	rjmp	.+132    	; 0x4672 <main+0x34a>
    45ee:	60 91 2c 09 	lds	r22, 0x092C	; 0x80092c <Max_X>
    45f2:	70 91 2d 09 	lds	r23, 0x092D	; 0x80092d <Max_X+0x1>
    45f6:	80 91 27 01 	lds	r24, 0x0127	; 0x800127 <Min_Speed>
    45fa:	90 e0       	ldi	r25, 0x00	; 0
    45fc:	68 17       	cp	r22, r24
    45fe:	79 07       	cpc	r23, r25
    4600:	30 f0       	brcs	.+12     	; 0x460e <main+0x2e6>
    4602:	80 91 20 01 	lds	r24, 0x0120	; 0x800120 <Max_Speed>
    4606:	90 e0       	ldi	r25, 0x00	; 0
    4608:	86 17       	cp	r24, r22
    460a:	97 07       	cpc	r25, r23
    460c:	20 f4       	brcc	.+8      	; 0x4616 <main+0x2ee>
    460e:	80 91 2a 09 	lds	r24, 0x092A	; 0x80092a <Speed_Filter>
    4612:	81 11       	cpse	r24, r1
    4614:	2e c0       	rjmp	.+92     	; 0x4672 <main+0x34a>
    4616:	80 e0       	ldi	r24, 0x00	; 0
    4618:	90 e0       	ldi	r25, 0x00	; 0
    461a:	0e 94 7b 24 	call	0x48f6	; 0x48f6 <__floatunsisf>
    461e:	20 91 2f 09 	lds	r18, 0x092F	; 0x80092f <kmhfaktor>
    4622:	30 91 30 09 	lds	r19, 0x0930	; 0x800930 <kmhfaktor+0x1>
    4626:	40 91 31 09 	lds	r20, 0x0931	; 0x800931 <kmhfaktor+0x2>
    462a:	50 91 32 09 	lds	r21, 0x0932	; 0x800932 <kmhfaktor+0x3>
    462e:	0e 94 da 23 	call	0x47b4	; 0x47b4 <__divsf3>
    4632:	0e 94 4c 24 	call	0x4898	; 0x4898 <__fixunssfsi>
    4636:	86 2f       	mov	r24, r22
    4638:	60 93 28 09 	sts	0x0928, r22	; 0x800928 <velocity>
    463c:	61 e0       	ldi	r22, 0x01	; 1
    463e:	0e 94 8e 23 	call	0x471c	; 0x471c <uart_putc>
    4642:	80 91 2e 09 	lds	r24, 0x092E	; 0x80092e <LED>
    4646:	81 30       	cpi	r24, 0x01	; 1
    4648:	09 f4       	brne	.+2      	; 0x464c <main+0x324>
    464a:	14 9a       	sbi	0x02, 4	; 2
    464c:	80 91 0f 01 	lds	r24, 0x010F	; 0x80010f <IOB6>
    4650:	81 30       	cpi	r24, 0x01	; 1
    4652:	09 f4       	brne	.+2      	; 0x4656 <main+0x32e>
    4654:	2e 9a       	sbi	0x05, 6	; 5
    4656:	80 91 2b 09 	lds	r24, 0x092B	; 0x80092b <IOB7>
    465a:	81 30       	cpi	r24, 0x01	; 1
    465c:	09 f4       	brne	.+2      	; 0x4660 <main+0x338>
    465e:	2f 98       	cbi	0x05, 7	; 5
    4660:	80 91 16 01 	lds	r24, 0x0116	; 0x800116 <Motion_Delay>
    4664:	90 91 17 01 	lds	r25, 0x0117	; 0x800117 <Motion_Delay+0x1>
    4668:	0e 94 1c 20 	call	0x4038	; 0x4038 <delay_ms>
    466c:	14 98       	cbi	0x02, 4	; 2
    466e:	2e 98       	cbi	0x05, 6	; 5
    4670:	2f 9a       	sbi	0x05, 7	; 5
    4672:	80 91 0e 01 	lds	r24, 0x010E	; 0x80010e <__data_end>
    4676:	8a 3f       	cpi	r24, 0xFA	; 250
    4678:	09 f0       	breq	.+2      	; 0x467c <main+0x354>
    467a:	99 ce       	rjmp	.-718    	; 0x43ae <main+0x86>
    467c:	60 e0       	ldi	r22, 0x00	; 0
    467e:	86 e0       	ldi	r24, 0x06	; 6
    4680:	91 e0       	ldi	r25, 0x01	; 1
    4682:	0e 94 a0 23 	call	0x4740	; 0x4740 <uart_puts>
    4686:	0e 94 56 1e 	call	0x3cac	; 0x3cac <PC_Mode>
    468a:	60 91 15 01 	lds	r22, 0x0115	; 0x800115 <ADC_Prescaler>
    468e:	80 91 18 01 	lds	r24, 0x0118	; 0x800118 <SampleCount>
    4692:	90 91 19 01 	lds	r25, 0x0119	; 0x800119 <SampleCount+0x1>
    4696:	0e 94 27 20 	call	0x404e	; 0x404e <getKhmFaktor>
    469a:	60 93 2f 09 	sts	0x092F, r22	; 0x80092f <kmhfaktor>
    469e:	70 93 30 09 	sts	0x0930, r23	; 0x800930 <kmhfaktor+0x1>
    46a2:	80 93 31 09 	sts	0x0931, r24	; 0x800931 <kmhfaktor+0x2>
    46a6:	90 93 32 09 	sts	0x0932, r25	; 0x800932 <kmhfaktor+0x3>
    46aa:	81 ce       	rjmp	.-766    	; 0x43ae <main+0x86>

000046ac <uart_init>:
    46ac:	0f 93       	push	r16
    46ae:	1f 93       	push	r17
    46b0:	41 11       	cpse	r20, r1
    46b2:	18 c0       	rjmp	.+48     	; 0x46e4 <uart_init+0x38>
    46b4:	20 91 c1 00 	lds	r18, 0x00C1	; 0x8000c1 <__TEXT_REGION_LENGTH__+0x7e00c1>
    46b8:	20 61       	ori	r18, 0x10	; 16
    46ba:	20 93 c1 00 	sts	0x00C1, r18	; 0x8000c1 <__TEXT_REGION_LENGTH__+0x7e00c1>
    46be:	20 91 c1 00 	lds	r18, 0x00C1	; 0x8000c1 <__TEXT_REGION_LENGTH__+0x7e00c1>
    46c2:	28 60       	ori	r18, 0x08	; 8
    46c4:	20 93 c1 00 	sts	0x00C1, r18	; 0x8000c1 <__TEXT_REGION_LENGTH__+0x7e00c1>
    46c8:	20 91 c2 00 	lds	r18, 0x00C2	; 0x8000c2 <__TEXT_REGION_LENGTH__+0x7e00c2>
    46cc:	26 60       	ori	r18, 0x06	; 6
    46ce:	20 93 c2 00 	sts	0x00C2, r18	; 0x8000c2 <__TEXT_REGION_LENGTH__+0x7e00c2>
    46d2:	07 2f       	mov	r16, r23
    46d4:	18 2f       	mov	r17, r24
    46d6:	29 2f       	mov	r18, r25
    46d8:	33 27       	eor	r19, r19
    46da:	00 93 c5 00 	sts	0x00C5, r16	; 0x8000c5 <__TEXT_REGION_LENGTH__+0x7e00c5>
    46de:	60 93 c4 00 	sts	0x00C4, r22	; 0x8000c4 <__TEXT_REGION_LENGTH__+0x7e00c4>
    46e2:	19 c0       	rjmp	.+50     	; 0x4716 <uart_init+0x6a>
    46e4:	41 30       	cpi	r20, 0x01	; 1
    46e6:	b9 f4       	brne	.+46     	; 0x4716 <uart_init+0x6a>
    46e8:	20 91 c9 00 	lds	r18, 0x00C9	; 0x8000c9 <__TEXT_REGION_LENGTH__+0x7e00c9>
    46ec:	20 61       	ori	r18, 0x10	; 16
    46ee:	20 93 c9 00 	sts	0x00C9, r18	; 0x8000c9 <__TEXT_REGION_LENGTH__+0x7e00c9>
    46f2:	20 91 c9 00 	lds	r18, 0x00C9	; 0x8000c9 <__TEXT_REGION_LENGTH__+0x7e00c9>
    46f6:	28 60       	ori	r18, 0x08	; 8
    46f8:	20 93 c9 00 	sts	0x00C9, r18	; 0x8000c9 <__TEXT_REGION_LENGTH__+0x7e00c9>
    46fc:	20 91 ca 00 	lds	r18, 0x00CA	; 0x8000ca <__TEXT_REGION_LENGTH__+0x7e00ca>
    4700:	26 60       	ori	r18, 0x06	; 6
    4702:	20 93 ca 00 	sts	0x00CA, r18	; 0x8000ca <__TEXT_REGION_LENGTH__+0x7e00ca>
    4706:	07 2f       	mov	r16, r23
    4708:	18 2f       	mov	r17, r24
    470a:	29 2f       	mov	r18, r25
    470c:	33 27       	eor	r19, r19
    470e:	00 93 cd 00 	sts	0x00CD, r16	; 0x8000cd <__TEXT_REGION_LENGTH__+0x7e00cd>
    4712:	60 93 cc 00 	sts	0x00CC, r22	; 0x8000cc <__TEXT_REGION_LENGTH__+0x7e00cc>
    4716:	1f 91       	pop	r17
    4718:	0f 91       	pop	r16
    471a:	08 95       	ret

0000471c <uart_putc>:
    471c:	61 11       	cpse	r22, r1
    471e:	07 c0       	rjmp	.+14     	; 0x472e <uart_putc+0x12>
    4720:	90 91 c0 00 	lds	r25, 0x00C0	; 0x8000c0 <__TEXT_REGION_LENGTH__+0x7e00c0>
    4724:	95 ff       	sbrs	r25, 5
    4726:	fc cf       	rjmp	.-8      	; 0x4720 <uart_putc+0x4>
    4728:	80 93 c6 00 	sts	0x00C6, r24	; 0x8000c6 <__TEXT_REGION_LENGTH__+0x7e00c6>
    472c:	08 95       	ret
    472e:	61 30       	cpi	r22, 0x01	; 1
    4730:	31 f4       	brne	.+12     	; 0x473e <uart_putc+0x22>
    4732:	90 91 c8 00 	lds	r25, 0x00C8	; 0x8000c8 <__TEXT_REGION_LENGTH__+0x7e00c8>
    4736:	95 ff       	sbrs	r25, 5
    4738:	fc cf       	rjmp	.-8      	; 0x4732 <uart_putc+0x16>
    473a:	80 93 ce 00 	sts	0x00CE, r24	; 0x8000ce <__TEXT_REGION_LENGTH__+0x7e00ce>
    473e:	08 95       	ret

00004740 <uart_puts>:
    4740:	1f 93       	push	r17
    4742:	cf 93       	push	r28
    4744:	df 93       	push	r29
    4746:	16 2f       	mov	r17, r22
    4748:	ec 01       	movw	r28, r24
    474a:	89 91       	ld	r24, Y+
    474c:	88 23       	and	r24, r24
    474e:	21 f0       	breq	.+8      	; 0x4758 <uart_puts+0x18>
    4750:	61 2f       	mov	r22, r17
    4752:	0e 94 8e 23 	call	0x471c	; 0x471c <uart_putc>
    4756:	f9 cf       	rjmp	.-14     	; 0x474a <uart_puts+0xa>
    4758:	df 91       	pop	r29
    475a:	cf 91       	pop	r28
    475c:	1f 91       	pop	r17
    475e:	08 95       	ret

00004760 <uart_getc>:
    4760:	81 11       	cpse	r24, r1
    4762:	07 c0       	rjmp	.+14     	; 0x4772 <uart_getc+0x12>
    4764:	80 91 c0 00 	lds	r24, 0x00C0	; 0x8000c0 <__TEXT_REGION_LENGTH__+0x7e00c0>
    4768:	87 ff       	sbrs	r24, 7
    476a:	0d c0       	rjmp	.+26     	; 0x4786 <uart_getc+0x26>
    476c:	80 91 c6 00 	lds	r24, 0x00C6	; 0x8000c6 <__TEXT_REGION_LENGTH__+0x7e00c6>
    4770:	08 c0       	rjmp	.+16     	; 0x4782 <uart_getc+0x22>
    4772:	81 30       	cpi	r24, 0x01	; 1
    4774:	41 f4       	brne	.+16     	; 0x4786 <uart_getc+0x26>
    4776:	80 91 c8 00 	lds	r24, 0x00C8	; 0x8000c8 <__TEXT_REGION_LENGTH__+0x7e00c8>
    477a:	87 ff       	sbrs	r24, 7
    477c:	04 c0       	rjmp	.+8      	; 0x4786 <uart_getc+0x26>
    477e:	80 91 ce 00 	lds	r24, 0x00CE	; 0x8000ce <__TEXT_REGION_LENGTH__+0x7e00ce>
    4782:	90 e0       	ldi	r25, 0x00	; 0
    4784:	08 95       	ret
    4786:	80 e0       	ldi	r24, 0x00	; 0
    4788:	90 e0       	ldi	r25, 0x00	; 0
    478a:	08 95       	ret

0000478c <uart_wait_getc>:
    478c:	81 11       	cpse	r24, r1
    478e:	05 c0       	rjmp	.+10     	; 0x479a <uart_wait_getc+0xe>
    4790:	80 91 c0 00 	lds	r24, 0x00C0	; 0x8000c0 <__TEXT_REGION_LENGTH__+0x7e00c0>
    4794:	87 ff       	sbrs	r24, 7
    4796:	fc cf       	rjmp	.-8      	; 0x4790 <uart_wait_getc+0x4>
    4798:	06 c0       	rjmp	.+12     	; 0x47a6 <uart_wait_getc+0x1a>
    479a:	81 30       	cpi	r24, 0x01	; 1
    479c:	41 f4       	brne	.+16     	; 0x47ae <uart_wait_getc+0x22>
    479e:	80 91 c8 00 	lds	r24, 0x00C8	; 0x8000c8 <__TEXT_REGION_LENGTH__+0x7e00c8>
    47a2:	87 ff       	sbrs	r24, 7
    47a4:	fc cf       	rjmp	.-8      	; 0x479e <uart_wait_getc+0x12>
    47a6:	80 91 c6 00 	lds	r24, 0x00C6	; 0x8000c6 <__TEXT_REGION_LENGTH__+0x7e00c6>
    47aa:	90 e0       	ldi	r25, 0x00	; 0
    47ac:	08 95       	ret
    47ae:	80 e0       	ldi	r24, 0x00	; 0
    47b0:	90 e0       	ldi	r25, 0x00	; 0
    47b2:	08 95       	ret

000047b4 <__divsf3>:
    47b4:	0e 94 ee 23 	call	0x47dc	; 0x47dc <__divsf3x>
    47b8:	0c 94 cf 24 	jmp	0x499e	; 0x499e <__fp_round>
    47bc:	0e 94 c8 24 	call	0x4990	; 0x4990 <__fp_pscB>
    47c0:	58 f0       	brcs	.+22     	; 0x47d8 <__divsf3+0x24>
    47c2:	0e 94 c1 24 	call	0x4982	; 0x4982 <__fp_pscA>
    47c6:	40 f0       	brcs	.+16     	; 0x47d8 <__divsf3+0x24>
    47c8:	29 f4       	brne	.+10     	; 0x47d4 <__divsf3+0x20>
    47ca:	5f 3f       	cpi	r21, 0xFF	; 255
    47cc:	29 f0       	breq	.+10     	; 0x47d8 <__divsf3+0x24>
    47ce:	0c 94 b8 24 	jmp	0x4970	; 0x4970 <__fp_inf>
    47d2:	51 11       	cpse	r21, r1
    47d4:	0c 94 03 25 	jmp	0x4a06	; 0x4a06 <__fp_szero>
    47d8:	0c 94 be 24 	jmp	0x497c	; 0x497c <__fp_nan>

000047dc <__divsf3x>:
    47dc:	0e 94 e0 24 	call	0x49c0	; 0x49c0 <__fp_split3>
    47e0:	68 f3       	brcs	.-38     	; 0x47bc <__divsf3+0x8>

000047e2 <__divsf3_pse>:
    47e2:	99 23       	and	r25, r25
    47e4:	b1 f3       	breq	.-20     	; 0x47d2 <__divsf3+0x1e>
    47e6:	55 23       	and	r21, r21
    47e8:	91 f3       	breq	.-28     	; 0x47ce <__divsf3+0x1a>
    47ea:	95 1b       	sub	r25, r21
    47ec:	55 0b       	sbc	r21, r21
    47ee:	bb 27       	eor	r27, r27
    47f0:	aa 27       	eor	r26, r26
    47f2:	62 17       	cp	r22, r18
    47f4:	73 07       	cpc	r23, r19
    47f6:	84 07       	cpc	r24, r20
    47f8:	38 f0       	brcs	.+14     	; 0x4808 <__divsf3_pse+0x26>
    47fa:	9f 5f       	subi	r25, 0xFF	; 255
    47fc:	5f 4f       	sbci	r21, 0xFF	; 255
    47fe:	22 0f       	add	r18, r18
    4800:	33 1f       	adc	r19, r19
    4802:	44 1f       	adc	r20, r20
    4804:	aa 1f       	adc	r26, r26
    4806:	a9 f3       	breq	.-22     	; 0x47f2 <__divsf3_pse+0x10>
    4808:	35 d0       	rcall	.+106    	; 0x4874 <__divsf3_pse+0x92>
    480a:	0e 2e       	mov	r0, r30
    480c:	3a f0       	brmi	.+14     	; 0x481c <__divsf3_pse+0x3a>
    480e:	e0 e8       	ldi	r30, 0x80	; 128
    4810:	32 d0       	rcall	.+100    	; 0x4876 <__divsf3_pse+0x94>
    4812:	91 50       	subi	r25, 0x01	; 1
    4814:	50 40       	sbci	r21, 0x00	; 0
    4816:	e6 95       	lsr	r30
    4818:	00 1c       	adc	r0, r0
    481a:	ca f7       	brpl	.-14     	; 0x480e <__divsf3_pse+0x2c>
    481c:	2b d0       	rcall	.+86     	; 0x4874 <__divsf3_pse+0x92>
    481e:	fe 2f       	mov	r31, r30
    4820:	29 d0       	rcall	.+82     	; 0x4874 <__divsf3_pse+0x92>
    4822:	66 0f       	add	r22, r22
    4824:	77 1f       	adc	r23, r23
    4826:	88 1f       	adc	r24, r24
    4828:	bb 1f       	adc	r27, r27
    482a:	26 17       	cp	r18, r22
    482c:	37 07       	cpc	r19, r23
    482e:	48 07       	cpc	r20, r24
    4830:	ab 07       	cpc	r26, r27
    4832:	b0 e8       	ldi	r27, 0x80	; 128
    4834:	09 f0       	breq	.+2      	; 0x4838 <__divsf3_pse+0x56>
    4836:	bb 0b       	sbc	r27, r27
    4838:	80 2d       	mov	r24, r0
    483a:	bf 01       	movw	r22, r30
    483c:	ff 27       	eor	r31, r31
    483e:	93 58       	subi	r25, 0x83	; 131
    4840:	5f 4f       	sbci	r21, 0xFF	; 255
    4842:	3a f0       	brmi	.+14     	; 0x4852 <__divsf3_pse+0x70>
    4844:	9e 3f       	cpi	r25, 0xFE	; 254
    4846:	51 05       	cpc	r21, r1
    4848:	78 f0       	brcs	.+30     	; 0x4868 <__divsf3_pse+0x86>
    484a:	0c 94 b8 24 	jmp	0x4970	; 0x4970 <__fp_inf>
    484e:	0c 94 03 25 	jmp	0x4a06	; 0x4a06 <__fp_szero>
    4852:	5f 3f       	cpi	r21, 0xFF	; 255
    4854:	e4 f3       	brlt	.-8      	; 0x484e <__divsf3_pse+0x6c>
    4856:	98 3e       	cpi	r25, 0xE8	; 232
    4858:	d4 f3       	brlt	.-12     	; 0x484e <__divsf3_pse+0x6c>
    485a:	86 95       	lsr	r24
    485c:	77 95       	ror	r23
    485e:	67 95       	ror	r22
    4860:	b7 95       	ror	r27
    4862:	f7 95       	ror	r31
    4864:	9f 5f       	subi	r25, 0xFF	; 255
    4866:	c9 f7       	brne	.-14     	; 0x485a <__divsf3_pse+0x78>
    4868:	88 0f       	add	r24, r24
    486a:	91 1d       	adc	r25, r1
    486c:	96 95       	lsr	r25
    486e:	87 95       	ror	r24
    4870:	97 f9       	bld	r25, 7
    4872:	08 95       	ret
    4874:	e1 e0       	ldi	r30, 0x01	; 1
    4876:	66 0f       	add	r22, r22
    4878:	77 1f       	adc	r23, r23
    487a:	88 1f       	adc	r24, r24
    487c:	bb 1f       	adc	r27, r27
    487e:	62 17       	cp	r22, r18
    4880:	73 07       	cpc	r23, r19
    4882:	84 07       	cpc	r24, r20
    4884:	ba 07       	cpc	r27, r26
    4886:	20 f0       	brcs	.+8      	; 0x4890 <__divsf3_pse+0xae>
    4888:	62 1b       	sub	r22, r18
    488a:	73 0b       	sbc	r23, r19
    488c:	84 0b       	sbc	r24, r20
    488e:	ba 0b       	sbc	r27, r26
    4890:	ee 1f       	adc	r30, r30
    4892:	88 f7       	brcc	.-30     	; 0x4876 <__divsf3_pse+0x94>
    4894:	e0 95       	com	r30
    4896:	08 95       	ret

00004898 <__fixunssfsi>:
    4898:	0e 94 e8 24 	call	0x49d0	; 0x49d0 <__fp_splitA>
    489c:	88 f0       	brcs	.+34     	; 0x48c0 <__fixunssfsi+0x28>
    489e:	9f 57       	subi	r25, 0x7F	; 127
    48a0:	98 f0       	brcs	.+38     	; 0x48c8 <__fixunssfsi+0x30>
    48a2:	b9 2f       	mov	r27, r25
    48a4:	99 27       	eor	r25, r25
    48a6:	b7 51       	subi	r27, 0x17	; 23
    48a8:	b0 f0       	brcs	.+44     	; 0x48d6 <__fixunssfsi+0x3e>
    48aa:	e1 f0       	breq	.+56     	; 0x48e4 <__fixunssfsi+0x4c>
    48ac:	66 0f       	add	r22, r22
    48ae:	77 1f       	adc	r23, r23
    48b0:	88 1f       	adc	r24, r24
    48b2:	99 1f       	adc	r25, r25
    48b4:	1a f0       	brmi	.+6      	; 0x48bc <__fixunssfsi+0x24>
    48b6:	ba 95       	dec	r27
    48b8:	c9 f7       	brne	.-14     	; 0x48ac <__fixunssfsi+0x14>
    48ba:	14 c0       	rjmp	.+40     	; 0x48e4 <__fixunssfsi+0x4c>
    48bc:	b1 30       	cpi	r27, 0x01	; 1
    48be:	91 f0       	breq	.+36     	; 0x48e4 <__fixunssfsi+0x4c>
    48c0:	0e 94 02 25 	call	0x4a04	; 0x4a04 <__fp_zero>
    48c4:	b1 e0       	ldi	r27, 0x01	; 1
    48c6:	08 95       	ret
    48c8:	0c 94 02 25 	jmp	0x4a04	; 0x4a04 <__fp_zero>
    48cc:	67 2f       	mov	r22, r23
    48ce:	78 2f       	mov	r23, r24
    48d0:	88 27       	eor	r24, r24
    48d2:	b8 5f       	subi	r27, 0xF8	; 248
    48d4:	39 f0       	breq	.+14     	; 0x48e4 <__fixunssfsi+0x4c>
    48d6:	b9 3f       	cpi	r27, 0xF9	; 249
    48d8:	cc f3       	brlt	.-14     	; 0x48cc <__fixunssfsi+0x34>
    48da:	86 95       	lsr	r24
    48dc:	77 95       	ror	r23
    48de:	67 95       	ror	r22
    48e0:	b3 95       	inc	r27
    48e2:	d9 f7       	brne	.-10     	; 0x48da <__fixunssfsi+0x42>
    48e4:	3e f4       	brtc	.+14     	; 0x48f4 <__fixunssfsi+0x5c>
    48e6:	90 95       	com	r25
    48e8:	80 95       	com	r24
    48ea:	70 95       	com	r23
    48ec:	61 95       	neg	r22
    48ee:	7f 4f       	sbci	r23, 0xFF	; 255
    48f0:	8f 4f       	sbci	r24, 0xFF	; 255
    48f2:	9f 4f       	sbci	r25, 0xFF	; 255
    48f4:	08 95       	ret

000048f6 <__floatunsisf>:
    48f6:	e8 94       	clt
    48f8:	09 c0       	rjmp	.+18     	; 0x490c <__floatsisf+0x12>

000048fa <__floatsisf>:
    48fa:	97 fb       	bst	r25, 7
    48fc:	3e f4       	brtc	.+14     	; 0x490c <__floatsisf+0x12>
    48fe:	90 95       	com	r25
    4900:	80 95       	com	r24
    4902:	70 95       	com	r23
    4904:	61 95       	neg	r22
    4906:	7f 4f       	sbci	r23, 0xFF	; 255
    4908:	8f 4f       	sbci	r24, 0xFF	; 255
    490a:	9f 4f       	sbci	r25, 0xFF	; 255
    490c:	99 23       	and	r25, r25
    490e:	a9 f0       	breq	.+42     	; 0x493a <__floatsisf+0x40>
    4910:	f9 2f       	mov	r31, r25
    4912:	96 e9       	ldi	r25, 0x96	; 150
    4914:	bb 27       	eor	r27, r27
    4916:	93 95       	inc	r25
    4918:	f6 95       	lsr	r31
    491a:	87 95       	ror	r24
    491c:	77 95       	ror	r23
    491e:	67 95       	ror	r22
    4920:	b7 95       	ror	r27
    4922:	f1 11       	cpse	r31, r1
    4924:	f8 cf       	rjmp	.-16     	; 0x4916 <__floatsisf+0x1c>
    4926:	fa f4       	brpl	.+62     	; 0x4966 <__floatsisf+0x6c>
    4928:	bb 0f       	add	r27, r27
    492a:	11 f4       	brne	.+4      	; 0x4930 <__floatsisf+0x36>
    492c:	60 ff       	sbrs	r22, 0
    492e:	1b c0       	rjmp	.+54     	; 0x4966 <__floatsisf+0x6c>
    4930:	6f 5f       	subi	r22, 0xFF	; 255
    4932:	7f 4f       	sbci	r23, 0xFF	; 255
    4934:	8f 4f       	sbci	r24, 0xFF	; 255
    4936:	9f 4f       	sbci	r25, 0xFF	; 255
    4938:	16 c0       	rjmp	.+44     	; 0x4966 <__floatsisf+0x6c>
    493a:	88 23       	and	r24, r24
    493c:	11 f0       	breq	.+4      	; 0x4942 <__floatsisf+0x48>
    493e:	96 e9       	ldi	r25, 0x96	; 150
    4940:	11 c0       	rjmp	.+34     	; 0x4964 <__floatsisf+0x6a>
    4942:	77 23       	and	r23, r23
    4944:	21 f0       	breq	.+8      	; 0x494e <__floatsisf+0x54>
    4946:	9e e8       	ldi	r25, 0x8E	; 142
    4948:	87 2f       	mov	r24, r23
    494a:	76 2f       	mov	r23, r22
    494c:	05 c0       	rjmp	.+10     	; 0x4958 <__floatsisf+0x5e>
    494e:	66 23       	and	r22, r22
    4950:	71 f0       	breq	.+28     	; 0x496e <__floatsisf+0x74>
    4952:	96 e8       	ldi	r25, 0x86	; 134
    4954:	86 2f       	mov	r24, r22
    4956:	70 e0       	ldi	r23, 0x00	; 0
    4958:	60 e0       	ldi	r22, 0x00	; 0
    495a:	2a f0       	brmi	.+10     	; 0x4966 <__floatsisf+0x6c>
    495c:	9a 95       	dec	r25
    495e:	66 0f       	add	r22, r22
    4960:	77 1f       	adc	r23, r23
    4962:	88 1f       	adc	r24, r24
    4964:	da f7       	brpl	.-10     	; 0x495c <__floatsisf+0x62>
    4966:	88 0f       	add	r24, r24
    4968:	96 95       	lsr	r25
    496a:	87 95       	ror	r24
    496c:	97 f9       	bld	r25, 7
    496e:	08 95       	ret

00004970 <__fp_inf>:
    4970:	97 f9       	bld	r25, 7
    4972:	9f 67       	ori	r25, 0x7F	; 127
    4974:	80 e8       	ldi	r24, 0x80	; 128
    4976:	70 e0       	ldi	r23, 0x00	; 0
    4978:	60 e0       	ldi	r22, 0x00	; 0
    497a:	08 95       	ret

0000497c <__fp_nan>:
    497c:	9f ef       	ldi	r25, 0xFF	; 255
    497e:	80 ec       	ldi	r24, 0xC0	; 192
    4980:	08 95       	ret

00004982 <__fp_pscA>:
    4982:	00 24       	eor	r0, r0
    4984:	0a 94       	dec	r0
    4986:	16 16       	cp	r1, r22
    4988:	17 06       	cpc	r1, r23
    498a:	18 06       	cpc	r1, r24
    498c:	09 06       	cpc	r0, r25
    498e:	08 95       	ret

00004990 <__fp_pscB>:
    4990:	00 24       	eor	r0, r0
    4992:	0a 94       	dec	r0
    4994:	12 16       	cp	r1, r18
    4996:	13 06       	cpc	r1, r19
    4998:	14 06       	cpc	r1, r20
    499a:	05 06       	cpc	r0, r21
    499c:	08 95       	ret

0000499e <__fp_round>:
    499e:	09 2e       	mov	r0, r25
    49a0:	03 94       	inc	r0
    49a2:	00 0c       	add	r0, r0
    49a4:	11 f4       	brne	.+4      	; 0x49aa <__fp_round+0xc>
    49a6:	88 23       	and	r24, r24
    49a8:	52 f0       	brmi	.+20     	; 0x49be <__fp_round+0x20>
    49aa:	bb 0f       	add	r27, r27
    49ac:	40 f4       	brcc	.+16     	; 0x49be <__fp_round+0x20>
    49ae:	bf 2b       	or	r27, r31
    49b0:	11 f4       	brne	.+4      	; 0x49b6 <__fp_round+0x18>
    49b2:	60 ff       	sbrs	r22, 0
    49b4:	04 c0       	rjmp	.+8      	; 0x49be <__fp_round+0x20>
    49b6:	6f 5f       	subi	r22, 0xFF	; 255
    49b8:	7f 4f       	sbci	r23, 0xFF	; 255
    49ba:	8f 4f       	sbci	r24, 0xFF	; 255
    49bc:	9f 4f       	sbci	r25, 0xFF	; 255
    49be:	08 95       	ret

000049c0 <__fp_split3>:
    49c0:	57 fd       	sbrc	r21, 7
    49c2:	90 58       	subi	r25, 0x80	; 128
    49c4:	44 0f       	add	r20, r20
    49c6:	55 1f       	adc	r21, r21
    49c8:	59 f0       	breq	.+22     	; 0x49e0 <__fp_splitA+0x10>
    49ca:	5f 3f       	cpi	r21, 0xFF	; 255
    49cc:	71 f0       	breq	.+28     	; 0x49ea <__fp_splitA+0x1a>
    49ce:	47 95       	ror	r20

000049d0 <__fp_splitA>:
    49d0:	88 0f       	add	r24, r24
    49d2:	97 fb       	bst	r25, 7
    49d4:	99 1f       	adc	r25, r25
    49d6:	61 f0       	breq	.+24     	; 0x49f0 <__fp_splitA+0x20>
    49d8:	9f 3f       	cpi	r25, 0xFF	; 255
    49da:	79 f0       	breq	.+30     	; 0x49fa <__fp_splitA+0x2a>
    49dc:	87 95       	ror	r24
    49de:	08 95       	ret
    49e0:	12 16       	cp	r1, r18
    49e2:	13 06       	cpc	r1, r19
    49e4:	14 06       	cpc	r1, r20
    49e6:	55 1f       	adc	r21, r21
    49e8:	f2 cf       	rjmp	.-28     	; 0x49ce <__fp_split3+0xe>
    49ea:	46 95       	lsr	r20
    49ec:	f1 df       	rcall	.-30     	; 0x49d0 <__fp_splitA>
    49ee:	08 c0       	rjmp	.+16     	; 0x4a00 <__fp_splitA+0x30>
    49f0:	16 16       	cp	r1, r22
    49f2:	17 06       	cpc	r1, r23
    49f4:	18 06       	cpc	r1, r24
    49f6:	99 1f       	adc	r25, r25
    49f8:	f1 cf       	rjmp	.-30     	; 0x49dc <__fp_splitA+0xc>
    49fa:	86 95       	lsr	r24
    49fc:	71 05       	cpc	r23, r1
    49fe:	61 05       	cpc	r22, r1
    4a00:	08 94       	sec
    4a02:	08 95       	ret

00004a04 <__fp_zero>:
    4a04:	e8 94       	clt

00004a06 <__fp_szero>:
    4a06:	bb 27       	eor	r27, r27
    4a08:	66 27       	eor	r22, r22
    4a0a:	77 27       	eor	r23, r23
    4a0c:	cb 01       	movw	r24, r22
    4a0e:	97 f9       	bld	r25, 7
    4a10:	08 95       	ret

00004a12 <malloc>:
    4a12:	cf 93       	push	r28
    4a14:	df 93       	push	r29
    4a16:	82 30       	cpi	r24, 0x02	; 2
    4a18:	91 05       	cpc	r25, r1
    4a1a:	10 f4       	brcc	.+4      	; 0x4a20 <malloc+0xe>
    4a1c:	82 e0       	ldi	r24, 0x02	; 2
    4a1e:	90 e0       	ldi	r25, 0x00	; 0
    4a20:	e0 91 3c 09 	lds	r30, 0x093C	; 0x80093c <__flp>
    4a24:	f0 91 3d 09 	lds	r31, 0x093D	; 0x80093d <__flp+0x1>
    4a28:	20 e0       	ldi	r18, 0x00	; 0
    4a2a:	30 e0       	ldi	r19, 0x00	; 0
    4a2c:	c0 e0       	ldi	r28, 0x00	; 0
    4a2e:	d0 e0       	ldi	r29, 0x00	; 0
    4a30:	30 97       	sbiw	r30, 0x00	; 0
    4a32:	11 f1       	breq	.+68     	; 0x4a78 <malloc+0x66>
    4a34:	40 81       	ld	r20, Z
    4a36:	51 81       	ldd	r21, Z+1	; 0x01
    4a38:	48 17       	cp	r20, r24
    4a3a:	59 07       	cpc	r21, r25
    4a3c:	c0 f0       	brcs	.+48     	; 0x4a6e <malloc+0x5c>
    4a3e:	48 17       	cp	r20, r24
    4a40:	59 07       	cpc	r21, r25
    4a42:	61 f4       	brne	.+24     	; 0x4a5c <malloc+0x4a>
    4a44:	82 81       	ldd	r24, Z+2	; 0x02
    4a46:	93 81       	ldd	r25, Z+3	; 0x03
    4a48:	20 97       	sbiw	r28, 0x00	; 0
    4a4a:	19 f0       	breq	.+6      	; 0x4a52 <malloc+0x40>
    4a4c:	9b 83       	std	Y+3, r25	; 0x03
    4a4e:	8a 83       	std	Y+2, r24	; 0x02
    4a50:	2b c0       	rjmp	.+86     	; 0x4aa8 <malloc+0x96>
    4a52:	90 93 3d 09 	sts	0x093D, r25	; 0x80093d <__flp+0x1>
    4a56:	80 93 3c 09 	sts	0x093C, r24	; 0x80093c <__flp>
    4a5a:	26 c0       	rjmp	.+76     	; 0x4aa8 <malloc+0x96>
    4a5c:	21 15       	cp	r18, r1
    4a5e:	31 05       	cpc	r19, r1
    4a60:	19 f0       	breq	.+6      	; 0x4a68 <malloc+0x56>
    4a62:	42 17       	cp	r20, r18
    4a64:	53 07       	cpc	r21, r19
    4a66:	18 f4       	brcc	.+6      	; 0x4a6e <malloc+0x5c>
    4a68:	9a 01       	movw	r18, r20
    4a6a:	be 01       	movw	r22, r28
    4a6c:	df 01       	movw	r26, r30
    4a6e:	ef 01       	movw	r28, r30
    4a70:	02 80       	ldd	r0, Z+2	; 0x02
    4a72:	f3 81       	ldd	r31, Z+3	; 0x03
    4a74:	e0 2d       	mov	r30, r0
    4a76:	dc cf       	rjmp	.-72     	; 0x4a30 <malloc+0x1e>
    4a78:	21 15       	cp	r18, r1
    4a7a:	31 05       	cpc	r19, r1
    4a7c:	09 f1       	breq	.+66     	; 0x4ac0 <malloc+0xae>
    4a7e:	28 1b       	sub	r18, r24
    4a80:	39 0b       	sbc	r19, r25
    4a82:	24 30       	cpi	r18, 0x04	; 4
    4a84:	31 05       	cpc	r19, r1
    4a86:	90 f4       	brcc	.+36     	; 0x4aac <malloc+0x9a>
    4a88:	12 96       	adiw	r26, 0x02	; 2
    4a8a:	8d 91       	ld	r24, X+
    4a8c:	9c 91       	ld	r25, X
    4a8e:	13 97       	sbiw	r26, 0x03	; 3
    4a90:	61 15       	cp	r22, r1
    4a92:	71 05       	cpc	r23, r1
    4a94:	21 f0       	breq	.+8      	; 0x4a9e <malloc+0x8c>
    4a96:	fb 01       	movw	r30, r22
    4a98:	93 83       	std	Z+3, r25	; 0x03
    4a9a:	82 83       	std	Z+2, r24	; 0x02
    4a9c:	04 c0       	rjmp	.+8      	; 0x4aa6 <malloc+0x94>
    4a9e:	90 93 3d 09 	sts	0x093D, r25	; 0x80093d <__flp+0x1>
    4aa2:	80 93 3c 09 	sts	0x093C, r24	; 0x80093c <__flp>
    4aa6:	fd 01       	movw	r30, r26
    4aa8:	32 96       	adiw	r30, 0x02	; 2
    4aaa:	44 c0       	rjmp	.+136    	; 0x4b34 <malloc+0x122>
    4aac:	fd 01       	movw	r30, r26
    4aae:	e2 0f       	add	r30, r18
    4ab0:	f3 1f       	adc	r31, r19
    4ab2:	81 93       	st	Z+, r24
    4ab4:	91 93       	st	Z+, r25
    4ab6:	22 50       	subi	r18, 0x02	; 2
    4ab8:	31 09       	sbc	r19, r1
    4aba:	2d 93       	st	X+, r18
    4abc:	3c 93       	st	X, r19
    4abe:	3a c0       	rjmp	.+116    	; 0x4b34 <malloc+0x122>
    4ac0:	20 91 3a 09 	lds	r18, 0x093A	; 0x80093a <__brkval>
    4ac4:	30 91 3b 09 	lds	r19, 0x093B	; 0x80093b <__brkval+0x1>
    4ac8:	23 2b       	or	r18, r19
    4aca:	41 f4       	brne	.+16     	; 0x4adc <malloc+0xca>
    4acc:	20 91 02 01 	lds	r18, 0x0102	; 0x800102 <__malloc_heap_start>
    4ad0:	30 91 03 01 	lds	r19, 0x0103	; 0x800103 <__malloc_heap_start+0x1>
    4ad4:	30 93 3b 09 	sts	0x093B, r19	; 0x80093b <__brkval+0x1>
    4ad8:	20 93 3a 09 	sts	0x093A, r18	; 0x80093a <__brkval>
    4adc:	20 91 00 01 	lds	r18, 0x0100	; 0x800100 <__data_start>
    4ae0:	30 91 01 01 	lds	r19, 0x0101	; 0x800101 <__data_start+0x1>
    4ae4:	21 15       	cp	r18, r1
    4ae6:	31 05       	cpc	r19, r1
    4ae8:	41 f4       	brne	.+16     	; 0x4afa <malloc+0xe8>
    4aea:	2d b7       	in	r18, 0x3d	; 61
    4aec:	3e b7       	in	r19, 0x3e	; 62
    4aee:	40 91 04 01 	lds	r20, 0x0104	; 0x800104 <__malloc_margin>
    4af2:	50 91 05 01 	lds	r21, 0x0105	; 0x800105 <__malloc_margin+0x1>
    4af6:	24 1b       	sub	r18, r20
    4af8:	35 0b       	sbc	r19, r21
    4afa:	e0 91 3a 09 	lds	r30, 0x093A	; 0x80093a <__brkval>
    4afe:	f0 91 3b 09 	lds	r31, 0x093B	; 0x80093b <__brkval+0x1>
    4b02:	e2 17       	cp	r30, r18
    4b04:	f3 07       	cpc	r31, r19
    4b06:	a0 f4       	brcc	.+40     	; 0x4b30 <malloc+0x11e>
    4b08:	2e 1b       	sub	r18, r30
    4b0a:	3f 0b       	sbc	r19, r31
    4b0c:	28 17       	cp	r18, r24
    4b0e:	39 07       	cpc	r19, r25
    4b10:	78 f0       	brcs	.+30     	; 0x4b30 <malloc+0x11e>
    4b12:	ac 01       	movw	r20, r24
    4b14:	4e 5f       	subi	r20, 0xFE	; 254
    4b16:	5f 4f       	sbci	r21, 0xFF	; 255
    4b18:	24 17       	cp	r18, r20
    4b1a:	35 07       	cpc	r19, r21
    4b1c:	48 f0       	brcs	.+18     	; 0x4b30 <malloc+0x11e>
    4b1e:	4e 0f       	add	r20, r30
    4b20:	5f 1f       	adc	r21, r31
    4b22:	50 93 3b 09 	sts	0x093B, r21	; 0x80093b <__brkval+0x1>
    4b26:	40 93 3a 09 	sts	0x093A, r20	; 0x80093a <__brkval>
    4b2a:	81 93       	st	Z+, r24
    4b2c:	91 93       	st	Z+, r25
    4b2e:	02 c0       	rjmp	.+4      	; 0x4b34 <malloc+0x122>
    4b30:	e0 e0       	ldi	r30, 0x00	; 0
    4b32:	f0 e0       	ldi	r31, 0x00	; 0
    4b34:	cf 01       	movw	r24, r30
    4b36:	df 91       	pop	r29
    4b38:	cf 91       	pop	r28
    4b3a:	08 95       	ret

00004b3c <free>:
    4b3c:	0f 93       	push	r16
    4b3e:	1f 93       	push	r17
    4b40:	cf 93       	push	r28
    4b42:	df 93       	push	r29
    4b44:	00 97       	sbiw	r24, 0x00	; 0
    4b46:	09 f4       	brne	.+2      	; 0x4b4a <free+0xe>
    4b48:	8c c0       	rjmp	.+280    	; 0x4c62 <free+0x126>
    4b4a:	fc 01       	movw	r30, r24
    4b4c:	32 97       	sbiw	r30, 0x02	; 2
    4b4e:	13 82       	std	Z+3, r1	; 0x03
    4b50:	12 82       	std	Z+2, r1	; 0x02
    4b52:	00 91 3c 09 	lds	r16, 0x093C	; 0x80093c <__flp>
    4b56:	10 91 3d 09 	lds	r17, 0x093D	; 0x80093d <__flp+0x1>
    4b5a:	01 15       	cp	r16, r1
    4b5c:	11 05       	cpc	r17, r1
    4b5e:	81 f4       	brne	.+32     	; 0x4b80 <free+0x44>
    4b60:	20 81       	ld	r18, Z
    4b62:	31 81       	ldd	r19, Z+1	; 0x01
    4b64:	82 0f       	add	r24, r18
    4b66:	93 1f       	adc	r25, r19
    4b68:	20 91 3a 09 	lds	r18, 0x093A	; 0x80093a <__brkval>
    4b6c:	30 91 3b 09 	lds	r19, 0x093B	; 0x80093b <__brkval+0x1>
    4b70:	28 17       	cp	r18, r24
    4b72:	39 07       	cpc	r19, r25
    4b74:	79 f5       	brne	.+94     	; 0x4bd4 <free+0x98>
    4b76:	f0 93 3b 09 	sts	0x093B, r31	; 0x80093b <__brkval+0x1>
    4b7a:	e0 93 3a 09 	sts	0x093A, r30	; 0x80093a <__brkval>
    4b7e:	71 c0       	rjmp	.+226    	; 0x4c62 <free+0x126>
    4b80:	d8 01       	movw	r26, r16
    4b82:	40 e0       	ldi	r20, 0x00	; 0
    4b84:	50 e0       	ldi	r21, 0x00	; 0
    4b86:	ae 17       	cp	r26, r30
    4b88:	bf 07       	cpc	r27, r31
    4b8a:	50 f4       	brcc	.+20     	; 0x4ba0 <free+0x64>
    4b8c:	12 96       	adiw	r26, 0x02	; 2
    4b8e:	2d 91       	ld	r18, X+
    4b90:	3c 91       	ld	r19, X
    4b92:	13 97       	sbiw	r26, 0x03	; 3
    4b94:	ad 01       	movw	r20, r26
    4b96:	21 15       	cp	r18, r1
    4b98:	31 05       	cpc	r19, r1
    4b9a:	09 f1       	breq	.+66     	; 0x4bde <free+0xa2>
    4b9c:	d9 01       	movw	r26, r18
    4b9e:	f3 cf       	rjmp	.-26     	; 0x4b86 <free+0x4a>
    4ba0:	9d 01       	movw	r18, r26
    4ba2:	da 01       	movw	r26, r20
    4ba4:	33 83       	std	Z+3, r19	; 0x03
    4ba6:	22 83       	std	Z+2, r18	; 0x02
    4ba8:	60 81       	ld	r22, Z
    4baa:	71 81       	ldd	r23, Z+1	; 0x01
    4bac:	86 0f       	add	r24, r22
    4bae:	97 1f       	adc	r25, r23
    4bb0:	82 17       	cp	r24, r18
    4bb2:	93 07       	cpc	r25, r19
    4bb4:	69 f4       	brne	.+26     	; 0x4bd0 <free+0x94>
    4bb6:	ec 01       	movw	r28, r24
    4bb8:	28 81       	ld	r18, Y
    4bba:	39 81       	ldd	r19, Y+1	; 0x01
    4bbc:	26 0f       	add	r18, r22
    4bbe:	37 1f       	adc	r19, r23
    4bc0:	2e 5f       	subi	r18, 0xFE	; 254
    4bc2:	3f 4f       	sbci	r19, 0xFF	; 255
    4bc4:	31 83       	std	Z+1, r19	; 0x01
    4bc6:	20 83       	st	Z, r18
    4bc8:	8a 81       	ldd	r24, Y+2	; 0x02
    4bca:	9b 81       	ldd	r25, Y+3	; 0x03
    4bcc:	93 83       	std	Z+3, r25	; 0x03
    4bce:	82 83       	std	Z+2, r24	; 0x02
    4bd0:	45 2b       	or	r20, r21
    4bd2:	29 f4       	brne	.+10     	; 0x4bde <free+0xa2>
    4bd4:	f0 93 3d 09 	sts	0x093D, r31	; 0x80093d <__flp+0x1>
    4bd8:	e0 93 3c 09 	sts	0x093C, r30	; 0x80093c <__flp>
    4bdc:	42 c0       	rjmp	.+132    	; 0x4c62 <free+0x126>
    4bde:	13 96       	adiw	r26, 0x03	; 3
    4be0:	fc 93       	st	X, r31
    4be2:	ee 93       	st	-X, r30
    4be4:	12 97       	sbiw	r26, 0x02	; 2
    4be6:	ed 01       	movw	r28, r26
    4be8:	49 91       	ld	r20, Y+
    4bea:	59 91       	ld	r21, Y+
    4bec:	9e 01       	movw	r18, r28
    4bee:	24 0f       	add	r18, r20
    4bf0:	35 1f       	adc	r19, r21
    4bf2:	e2 17       	cp	r30, r18
    4bf4:	f3 07       	cpc	r31, r19
    4bf6:	71 f4       	brne	.+28     	; 0x4c14 <free+0xd8>
    4bf8:	80 81       	ld	r24, Z
    4bfa:	91 81       	ldd	r25, Z+1	; 0x01
    4bfc:	84 0f       	add	r24, r20
    4bfe:	95 1f       	adc	r25, r21
    4c00:	02 96       	adiw	r24, 0x02	; 2
    4c02:	11 96       	adiw	r26, 0x01	; 1
    4c04:	9c 93       	st	X, r25
    4c06:	8e 93       	st	-X, r24
    4c08:	82 81       	ldd	r24, Z+2	; 0x02
    4c0a:	93 81       	ldd	r25, Z+3	; 0x03
    4c0c:	13 96       	adiw	r26, 0x03	; 3
    4c0e:	9c 93       	st	X, r25
    4c10:	8e 93       	st	-X, r24
    4c12:	12 97       	sbiw	r26, 0x02	; 2
    4c14:	e0 e0       	ldi	r30, 0x00	; 0
    4c16:	f0 e0       	ldi	r31, 0x00	; 0
    4c18:	d8 01       	movw	r26, r16
    4c1a:	12 96       	adiw	r26, 0x02	; 2
    4c1c:	8d 91       	ld	r24, X+
    4c1e:	9c 91       	ld	r25, X
    4c20:	13 97       	sbiw	r26, 0x03	; 3
    4c22:	00 97       	sbiw	r24, 0x00	; 0
    4c24:	19 f0       	breq	.+6      	; 0x4c2c <free+0xf0>
    4c26:	f8 01       	movw	r30, r16
    4c28:	8c 01       	movw	r16, r24
    4c2a:	f6 cf       	rjmp	.-20     	; 0x4c18 <free+0xdc>
    4c2c:	8d 91       	ld	r24, X+
    4c2e:	9c 91       	ld	r25, X
    4c30:	98 01       	movw	r18, r16
    4c32:	2e 5f       	subi	r18, 0xFE	; 254
    4c34:	3f 4f       	sbci	r19, 0xFF	; 255
    4c36:	82 0f       	add	r24, r18
    4c38:	93 1f       	adc	r25, r19
    4c3a:	20 91 3a 09 	lds	r18, 0x093A	; 0x80093a <__brkval>
    4c3e:	30 91 3b 09 	lds	r19, 0x093B	; 0x80093b <__brkval+0x1>
    4c42:	28 17       	cp	r18, r24
    4c44:	39 07       	cpc	r19, r25
    4c46:	69 f4       	brne	.+26     	; 0x4c62 <free+0x126>
    4c48:	30 97       	sbiw	r30, 0x00	; 0
    4c4a:	29 f4       	brne	.+10     	; 0x4c56 <free+0x11a>
    4c4c:	10 92 3d 09 	sts	0x093D, r1	; 0x80093d <__flp+0x1>
    4c50:	10 92 3c 09 	sts	0x093C, r1	; 0x80093c <__flp>
    4c54:	02 c0       	rjmp	.+4      	; 0x4c5a <free+0x11e>
    4c56:	13 82       	std	Z+3, r1	; 0x03
    4c58:	12 82       	std	Z+2, r1	; 0x02
    4c5a:	10 93 3b 09 	sts	0x093B, r17	; 0x80093b <__brkval+0x1>
    4c5e:	00 93 3a 09 	sts	0x093A, r16	; 0x80093a <__brkval>
    4c62:	df 91       	pop	r29
    4c64:	cf 91       	pop	r28
    4c66:	1f 91       	pop	r17
    4c68:	0f 91       	pop	r16
    4c6a:	08 95       	ret

00004c6c <eeprom_read_byte>:
    4c6c:	f9 99       	sbic	0x1f, 1	; 31
    4c6e:	fe cf       	rjmp	.-4      	; 0x4c6c <eeprom_read_byte>
    4c70:	92 bd       	out	0x22, r25	; 34
    4c72:	81 bd       	out	0x21, r24	; 33
    4c74:	f8 9a       	sbi	0x1f, 0	; 31
    4c76:	99 27       	eor	r25, r25
    4c78:	80 b5       	in	r24, 0x20	; 32
    4c7a:	08 95       	ret

00004c7c <eeprom_write_byte>:
    4c7c:	26 2f       	mov	r18, r22

00004c7e <eeprom_write_r18>:
    4c7e:	f9 99       	sbic	0x1f, 1	; 31
    4c80:	fe cf       	rjmp	.-4      	; 0x4c7e <eeprom_write_r18>
    4c82:	1f ba       	out	0x1f, r1	; 31
    4c84:	92 bd       	out	0x22, r25	; 34
    4c86:	81 bd       	out	0x21, r24	; 33
    4c88:	20 bd       	out	0x20, r18	; 32
    4c8a:	0f b6       	in	r0, 0x3f	; 63
    4c8c:	f8 94       	cli
    4c8e:	fa 9a       	sbi	0x1f, 2	; 31
    4c90:	f9 9a       	sbi	0x1f, 1	; 31
    4c92:	0f be       	out	0x3f, r0	; 63
    4c94:	01 96       	adiw	r24, 0x01	; 1
    4c96:	08 95       	ret

00004c98 <_exit>:
    4c98:	f8 94       	cli

00004c9a <__stop_program>:
    4c9a:	ff cf       	rjmp	.-2      	; 0x4c9a <__stop_program>
